gpasm-1.4.0 #1106 (Oct  6 2014)      main.asm   8-19-2015  19:58:20         PAGE  1


LOC    OBJECT CODE    LINE  SOURCE TEXT
  VALUE

                      00001 ;--------------------------------------------------------
                      00002 ; File Created by SDCC : free open source ANSI-C Compiler
                      00003 ; Version 3.5.2 #9293 (MINGW32)
                      00004 ; This file was generated Wed Aug 19 19:58:20 2015
                      00005 ;--------------------------------------------------------
                      00006 ; PIC16 port for the Microchip 16-bit core micros
                      00007 ;--------------------------------------------------------
                      00008         list    p=18f26k80
                      00009         radix   dec
                      00010         CONFIG  RETEN=OFF
                      00011         CONFIG  INTOSCSEL=HIGH
                      00012         CONFIG  SOSCSEL=DIG
                      00013         CONFIG  XINST=OFF
                      00014         CONFIG  FOSC=INTIO2
                      00015         CONFIG  PLLCFG=ON
                      00016         CONFIG  FCMEN=ON
                      00017         CONFIG  IESO=OFF
                      00018         CONFIG  PWRTEN=OFF
                      00019         CONFIG  BOREN=SBORDIS
                      00020         CONFIG  BORV=1
                      00021         CONFIG  BORPWR=ZPBORMV
                      00022         CONFIG  WDTEN=OFF
                      00023         CONFIG  WDTPS=256
                      00024         CONFIG  CANMX=PORTB
                      00025         CONFIG  MSSPMSK=MSK7
                      00026         CONFIG  MCLRE=ON
                      00027         CONFIG  STVREN=ON
                      00028         CONFIG  BBSIZ=BB2K
                      00029         CONFIG  CP0=OFF
                      00030         CONFIG  CP1=OFF
                      00031         CONFIG  CP2=OFF
                      00032         CONFIG  CP3=OFF
                      00033         CONFIG  CPB=OFF
                      00034         CONFIG  CPD=OFF
                      00035         CONFIG  WRT0=OFF
                      00036         CONFIG  WRT1=OFF
                      00037         CONFIG  WRT2=OFF
                      00038         CONFIG  WRT3=OFF
                      00039         CONFIG  WRTC=OFF
                      00040         CONFIG  WRTB=OFF
                      00041         CONFIG  WRTD=OFF
                      00042         CONFIG  EBTR0=OFF
                      00043         CONFIG  EBTR1=OFF
                      00044         CONFIG  EBTR2=OFF
                      00045         CONFIG  EBTR3=OFF
                      00046         CONFIG  EBTRB=OFF
                      00047 
                      00048 
                      00049 ;--------------------------------------------------------
                      00050 ; public variables in this module
                      00051 ;--------------------------------------------------------
  0000                00052         global  _stack
  0000                00053         global  _stack_end
gpasm-1.4.0 #1106 (Oct  6 2014)      main.asm   8-19-2015  19:58:20         PAGE  2


LOC    OBJECT CODE    LINE  SOURCE TEXT
  VALUE

  0000                00054         global  _gbuffer
  0000                00055         global  _timeout
  0000                00056         global  _main
  0000                00057         global  _interrupt_at_high_vector
  0000                00058         global  _interrupt_at_low_vector
                      00059 
                      00060 ;--------------------------------------------------------
                      00061 ; extern variables in this module
                      00062 ;--------------------------------------------------------
  0000                00063         extern  __gptrget1
  0000                00064         extern  _stdin
  0000                00065         extern  _stdout
  0000                00066         extern  _RXERRCNTbits
  0000                00067         extern  _TXERRCNTbits
  0000                00068         extern  _BRGCON1bits
  0000                00069         extern  _BRGCON2bits
  0000                00070         extern  _BRGCON3bits
  0000                00071         extern  _RXFCON0bits
  0000                00072         extern  _RXFCON1bits
  0000                00073         extern  _RXF6SIDHbits
  0000                00074         extern  _RXF6SIDLbits
  0000                00075         extern  _RXF6EIDHbits
  0000                00076         extern  _RXF6EIDLbits
  0000                00077         extern  _RXF7SIDHbits
  0000                00078         extern  _RXF7SIDLbits
  0000                00079         extern  _RXF7EIDHbits
  0000                00080         extern  _RXF7EIDLbits
  0000                00081         extern  _RXF8SIDHbits
  0000                00082         extern  _RXF8SIDLbits
  0000                00083         extern  _RXF8EIDHbits
  0000                00084         extern  _RXF8EIDLbits
  0000                00085         extern  _RXF9SIDHbits
  0000                00086         extern  _RXF9SIDLbits
  0000                00087         extern  _RXF9EIDHbits
  0000                00088         extern  _RXF9EIDLbits
  0000                00089         extern  _RXF10SIDHbits
  0000                00090         extern  _RXF10SIDLbits
  0000                00091         extern  _RXF10EIDHbits
  0000                00092         extern  _RXF10EIDLbits
  0000                00093         extern  _RXF11SIDHbits
  0000                00094         extern  _RXF11SIDLbits
  0000                00095         extern  _RXF11EIDHbits
  0000                00096         extern  _RXF11EIDLbits
  0000                00097         extern  _RXF12SIDHbits
  0000                00098         extern  _RXF12SIDLbits
  0000                00099         extern  _RXF12EIDHbits
  0000                00100         extern  _RXF12EIDLbits
  0000                00101         extern  _RXF13SIDHbits
  0000                00102         extern  _RXF13SIDLbits
  0000                00103         extern  _RXF13EIDHbits
  0000                00104         extern  _RXF13EIDLbits
  0000                00105         extern  _RXF14SIDHbits
  0000                00106         extern  _RXF14SIDLbits
gpasm-1.4.0 #1106 (Oct  6 2014)      main.asm   8-19-2015  19:58:20         PAGE  3


LOC    OBJECT CODE    LINE  SOURCE TEXT
  VALUE

  0000                00107         extern  _RXF14EIDHbits
  0000                00108         extern  _RXF14EIDLbits
  0000                00109         extern  _RXF15SIDHbits
  0000                00110         extern  _RXF15SIDLbits
  0000                00111         extern  _RXF15EIDHbits
  0000                00112         extern  _RXF15EIDLbits
  0000                00113         extern  _SDFLCbits
  0000                00114         extern  _RXFBCON0bits
  0000                00115         extern  _RXFBCON1bits
  0000                00116         extern  _RXFBCON2bits
  0000                00117         extern  _RXFBCON3bits
  0000                00118         extern  _RXFBCON4bits
  0000                00119         extern  _RXFBCON5bits
  0000                00120         extern  _RXFBCON6bits
  0000                00121         extern  _RXFBCON7bits
  0000                00122         extern  _MSEL0bits
  0000                00123         extern  _MSEL1bits
  0000                00124         extern  _MSEL2bits
  0000                00125         extern  _MSEL3bits
  0000                00126         extern  _BSEL0bits
  0000                00127         extern  _BIE0bits
  0000                00128         extern  _TXBIEbits
  0000                00129         extern  _B0CONbits
  0000                00130         extern  _B0SIDHbits
  0000                00131         extern  _B0SIDLbits
  0000                00132         extern  _B0EIDHbits
  0000                00133         extern  _B0EIDLbits
  0000                00134         extern  _B0DLCbits
  0000                00135         extern  _B0D0bits
  0000                00136         extern  _B0D1bits
  0000                00137         extern  _B0D2bits
  0000                00138         extern  _B0D3bits
  0000                00139         extern  _B0D4bits
  0000                00140         extern  _B0D5bits
  0000                00141         extern  _B0D6bits
  0000                00142         extern  _B0D7bits
  0000                00143         extern  _CANSTAT_RO9bits
  0000                00144         extern  _CANCON_RO9bits
  0000                00145         extern  _B1CONbits
  0000                00146         extern  _B1SIDHbits
  0000                00147         extern  _B1SIDLbits
  0000                00148         extern  _B1EIDHbits
  0000                00149         extern  _B1EIDLbits
  0000                00150         extern  _B1DLCbits
  0000                00151         extern  _B1D0bits
  0000                00152         extern  _B1D1bits
  0000                00153         extern  _B1D2bits
  0000                00154         extern  _B1D3bits
  0000                00155         extern  _B1D4bits
  0000                00156         extern  _B1D5bits
  0000                00157         extern  _B1D6bits
  0000                00158         extern  _B1D7bits
  0000                00159         extern  _CANSTAT_RO8bits
gpasm-1.4.0 #1106 (Oct  6 2014)      main.asm   8-19-2015  19:58:20         PAGE  4


LOC    OBJECT CODE    LINE  SOURCE TEXT
  VALUE

  0000                00160         extern  _CANCON_RO8bits
  0000                00161         extern  _B2CONbits
  0000                00162         extern  _B2SIDHbits
  0000                00163         extern  _B2SIDLbits
  0000                00164         extern  _B2EIDHbits
  0000                00165         extern  _B2EIDLbits
  0000                00166         extern  _B2DLCbits
  0000                00167         extern  _B2D0bits
  0000                00168         extern  _B2D1bits
  0000                00169         extern  _B2D2bits
  0000                00170         extern  _B2D3bits
  0000                00171         extern  _B2D4bits
  0000                00172         extern  _B2D5bits
  0000                00173         extern  _B2D6bits
  0000                00174         extern  _B2D7bits
  0000                00175         extern  _CANSTAT_RO7bits
  0000                00176         extern  _CANCON_RO7bits
  0000                00177         extern  _B3CONbits
  0000                00178         extern  _B3SIDHbits
  0000                00179         extern  _B3SIDLbits
  0000                00180         extern  _B3EIDHbits
  0000                00181         extern  _B3EIDLbits
  0000                00182         extern  _B3DLCbits
  0000                00183         extern  _B3D0bits
  0000                00184         extern  _B3D1bits
  0000                00185         extern  _B3D2bits
  0000                00186         extern  _B3D3bits
  0000                00187         extern  _B3D4bits
  0000                00188         extern  _B3D5bits
  0000                00189         extern  _B3D6bits
  0000                00190         extern  _B3D7bits
  0000                00191         extern  _CANSTAT_RO6bits
  0000                00192         extern  _CANCON_RO6bits
  0000                00193         extern  _B4CONbits
  0000                00194         extern  _B4SIDHbits
  0000                00195         extern  _B4SIDLbits
  0000                00196         extern  _B4EIDHbits
  0000                00197         extern  _B4EIDLbits
  0000                00198         extern  _B4DLCbits
  0000                00199         extern  _B4D0bits
  0000                00200         extern  _B4D1bits
  0000                00201         extern  _B4D2bits
  0000                00202         extern  _B4D3bits
  0000                00203         extern  _B4D4bits
  0000                00204         extern  _B4D5bits
  0000                00205         extern  _B4D6bits
  0000                00206         extern  _B4D7bits
  0000                00207         extern  _CANSTAT_RO5bits
  0000                00208         extern  _CANCON_RO5bits
  0000                00209         extern  _B5CONbits
  0000                00210         extern  _B5SIDHbits
  0000                00211         extern  _B5SIDLbits
  0000                00212         extern  _B5EIDHbits
gpasm-1.4.0 #1106 (Oct  6 2014)      main.asm   8-19-2015  19:58:20         PAGE  5


LOC    OBJECT CODE    LINE  SOURCE TEXT
  VALUE

  0000                00213         extern  _B5EIDLbits
  0000                00214         extern  _B5DLCbits
  0000                00215         extern  _B5D0bits
  0000                00216         extern  _B5D1bits
  0000                00217         extern  _B5D2bits
  0000                00218         extern  _B5D3bits
  0000                00219         extern  _B5D4bits
  0000                00220         extern  _B5D5bits
  0000                00221         extern  _B5D6bits
  0000                00222         extern  _B5D7bits
  0000                00223         extern  _CANSTAT_RO4bits
  0000                00224         extern  _CANCON_RO4bits
  0000                00225         extern  _RXF0SIDHbits
  0000                00226         extern  _RXF0SIDLbits
  0000                00227         extern  _RXF0EIDHbits
  0000                00228         extern  _RXF0EIDLbits
  0000                00229         extern  _RXF1SIDHbits
  0000                00230         extern  _RXF1SIDLbits
  0000                00231         extern  _RXF1EIDHbits
  0000                00232         extern  _RXF1EIDLbits
  0000                00233         extern  _RXF2SIDHbits
  0000                00234         extern  _RXF2SIDLbits
  0000                00235         extern  _RXF2EIDHbits
  0000                00236         extern  _RXF2EIDLbits
  0000                00237         extern  _RXF3SIDHbits
  0000                00238         extern  _RXF3SIDLbits
  0000                00239         extern  _RXF3EIDHbits
  0000                00240         extern  _RXF3EIDLbits
  0000                00241         extern  _RXF4SIDHbits
  0000                00242         extern  _RXF4SIDLbits
  0000                00243         extern  _RXF4EIDHbits
  0000                00244         extern  _RXF4EIDLbits
  0000                00245         extern  _RXF5SIDHbits
  0000                00246         extern  _RXF5SIDLbits
  0000                00247         extern  _RXF5EIDHbits
  0000                00248         extern  _RXF5EIDLbits
  0000                00249         extern  _RXM0SIDHbits
  0000                00250         extern  _RXM0SIDLbits
  0000                00251         extern  _RXM0EIDHbits
  0000                00252         extern  _RXM0EIDLbits
  0000                00253         extern  _RXM1SIDHbits
  0000                00254         extern  _RXM1SIDLbits
  0000                00255         extern  _RXM1EIDHbits
  0000                00256         extern  _RXM1EIDLbits
  0000                00257         extern  _TXB2CONbits
  0000                00258         extern  _TXB2SIDHbits
  0000                00259         extern  _TXB2SIDLbits
  0000                00260         extern  _TXB2EIDHbits
  0000                00261         extern  _TXB2EIDLbits
  0000                00262         extern  _TXB2DLCbits
  0000                00263         extern  _TXB2D0bits
  0000                00264         extern  _TXB2D1bits
  0000                00265         extern  _TXB2D2bits
gpasm-1.4.0 #1106 (Oct  6 2014)      main.asm   8-19-2015  19:58:20         PAGE  6


LOC    OBJECT CODE    LINE  SOURCE TEXT
  VALUE

  0000                00266         extern  _TXB2D3bits
  0000                00267         extern  _TXB2D4bits
  0000                00268         extern  _TXB2D5bits
  0000                00269         extern  _TXB2D6bits
  0000                00270         extern  _TXB2D7bits
  0000                00271         extern  _CANSTAT_RO3bits
  0000                00272         extern  _CANCON_RO3bits
  0000                00273         extern  _TXB1CONbits
  0000                00274         extern  _TXB1SIDHbits
  0000                00275         extern  _TXB1SIDLbits
  0000                00276         extern  _TXB1EIDHbits
  0000                00277         extern  _TXB1EIDLbits
  0000                00278         extern  _TXB1DLCbits
  0000                00279         extern  _TXB1D0bits
  0000                00280         extern  _TXB1D1bits
  0000                00281         extern  _TXB1D2bits
  0000                00282         extern  _TXB1D3bits
  0000                00283         extern  _TXB1D4bits
  0000                00284         extern  _TXB1D5bits
  0000                00285         extern  _TXB1D6bits
  0000                00286         extern  _TXB1D7bits
  0000                00287         extern  _CANSTAT_RO2bits
  0000                00288         extern  _CANCON_RO2bits
  0000                00289         extern  _TXB0CONbits
  0000                00290         extern  _TXB0SIDHbits
  0000                00291         extern  _TXB0SIDLbits
  0000                00292         extern  _TXB0EIDHbits
  0000                00293         extern  _TXB0EIDLbits
  0000                00294         extern  _TXB0DLCbits
  0000                00295         extern  _TXB0D0bits
  0000                00296         extern  _TXB0D1bits
  0000                00297         extern  _TXB0D2bits
  0000                00298         extern  _TXB0D3bits
  0000                00299         extern  _TXB0D4bits
  0000                00300         extern  _TXB0D5bits
  0000                00301         extern  _TXB0D6bits
  0000                00302         extern  _TXB0D7bits
  0000                00303         extern  _CANSTAT_RO1bits
  0000                00304         extern  _CANCON_RO1bits
  0000                00305         extern  _RXB1CONbits
  0000                00306         extern  _RXB1SIDHbits
  0000                00307         extern  _RXB1SIDLbits
  0000                00308         extern  _RXB1EIDHbits
  0000                00309         extern  _RXB1EIDLbits
  0000                00310         extern  _RXB1DLCbits
  0000                00311         extern  _RXB1D0bits
  0000                00312         extern  _RXB1D1bits
  0000                00313         extern  _RXB1D2bits
  0000                00314         extern  _RXB1D3bits
  0000                00315         extern  _RXB1D4bits
  0000                00316         extern  _RXB1D5bits
  0000                00317         extern  _RXB1D6bits
  0000                00318         extern  _RXB1D7bits
gpasm-1.4.0 #1106 (Oct  6 2014)      main.asm   8-19-2015  19:58:20         PAGE  7


LOC    OBJECT CODE    LINE  SOURCE TEXT
  VALUE

  0000                00319         extern  _CANSTAT_RO0bits
  0000                00320         extern  _CANCON_RO0bits
  0000                00321         extern  _CCP5CONbits
  0000                00322         extern  _CCP4CONbits
  0000                00323         extern  _CCP3CONbits
  0000                00324         extern  _CCP2CONbits
  0000                00325         extern  _ECCP2CONbits
  0000                00326         extern  _CTMUICONbits
  0000                00327         extern  _CTMUCONLbits
  0000                00328         extern  _CTMUCONHbits
  0000                00329         extern  _PADCFG1bits
  0000                00330         extern  _PMD2bits
  0000                00331         extern  _PMD1bits
  0000                00332         extern  _PMD0bits
  0000                00333         extern  _IOCBbits
  0000                00334         extern  _WPUBbits
  0000                00335         extern  _ANCON1bits
  0000                00336         extern  _ANCON0bits
  0000                00337         extern  _CM2CONbits
  0000                00338         extern  _CM2CON1bits
  0000                00339         extern  _CM1CONbits
  0000                00340         extern  _CM1CON1bits
  0000                00341         extern  _RXB0CONbits
  0000                00342         extern  _RXB0SIDHbits
  0000                00343         extern  _RXB0SIDLbits
  0000                00344         extern  _RXB0EIDHbits
  0000                00345         extern  _RXB0EIDLbits
  0000                00346         extern  _RXB0DLCbits
  0000                00347         extern  _RXB0D0bits
  0000                00348         extern  _RXB0D1bits
  0000                00349         extern  _RXB0D2bits
  0000                00350         extern  _RXB0D3bits
  0000                00351         extern  _RXB0D4bits
  0000                00352         extern  _RXB0D5bits
  0000                00353         extern  _RXB0D6bits
  0000                00354         extern  _RXB0D7bits
  0000                00355         extern  _CANSTATbits
  0000                00356         extern  _CANCONbits
  0000                00357         extern  _CIOCONbits
  0000                00358         extern  _COMSTATbits
  0000                00359         extern  _ECANCONbits
  0000                00360         extern  _PIE5bits
  0000                00361         extern  _PIR5bits
  0000                00362         extern  _IPR5bits
  0000                00363         extern  _EECON1bits
  0000                00364         extern  _PORTAbits
  0000                00365         extern  _PORTBbits
  0000                00366         extern  _PORTCbits
  0000                00367         extern  _PORTEbits
  0000                00368         extern  _T4CONbits
  0000                00369         extern  _LATAbits
  0000                00370         extern  _LATBbits
  0000                00371         extern  _LATCbits
gpasm-1.4.0 #1106 (Oct  6 2014)      main.asm   8-19-2015  19:58:20         PAGE  8


LOC    OBJECT CODE    LINE  SOURCE TEXT
  VALUE

  0000                00372         extern  _SLRCONbits
  0000                00373         extern  _ODCONbits
  0000                00374         extern  _TRISAbits
  0000                00375         extern  _TRISBbits
  0000                00376         extern  _TRISCbits
  0000                00377         extern  _CCPTMRSbits
  0000                00378         extern  _REFOCONbits
  0000                00379         extern  _OSCTUNEbits
  0000                00380         extern  _PSTR1CONbits
  0000                00381         extern  _PIE1bits
  0000                00382         extern  _PIR1bits
  0000                00383         extern  _IPR1bits
  0000                00384         extern  _PIE2bits
  0000                00385         extern  _PIR2bits
  0000                00386         extern  _IPR2bits
  0000                00387         extern  _PIE3bits
  0000                00388         extern  _PIR3bits
  0000                00389         extern  _IPR3bits
  0000                00390         extern  _RCSTA2bits
  0000                00391         extern  _BAUDCON1bits
  0000                00392         extern  _HLVDCONbits
  0000                00393         extern  _T1GCONbits
  0000                00394         extern  _RCSTAbits
  0000                00395         extern  _RCSTA1bits
  0000                00396         extern  _TXSTAbits
  0000                00397         extern  _TXSTA1bits
  0000                00398         extern  _T3GCONbits
  0000                00399         extern  _T3CONbits
  0000                00400         extern  _CMSTATbits
  0000                00401         extern  _CMSTATUSbits
  0000                00402         extern  _CVRCONbits
  0000                00403         extern  _PIE4bits
  0000                00404         extern  _PIR4bits
  0000                00405         extern  _IPR4bits
  0000                00406         extern  _BAUDCON2bits
  0000                00407         extern  _TXSTA2bits
  0000                00408         extern  _CCP1CONbits
  0000                00409         extern  _ECCP1CONbits
  0000                00410         extern  _ECCP1DELbits
  0000                00411         extern  _PWM1CONbits
  0000                00412         extern  _ECCP1ASbits
  0000                00413         extern  _ADCON2bits
  0000                00414         extern  _ADCON1bits
  0000                00415         extern  _ADCON0bits
  0000                00416         extern  _SSPCON2bits
  0000                00417         extern  _SSPCON1bits
  0000                00418         extern  _SSPSTATbits
  0000                00419         extern  _SSPADDbits
  0000                00420         extern  _T2CONbits
  0000                00421         extern  _T1CONbits
  0000                00422         extern  _RCONbits
  0000                00423         extern  _WDTCONbits
  0000                00424         extern  _OSCCON2bits
gpasm-1.4.0 #1106 (Oct  6 2014)      main.asm   8-19-2015  19:58:20         PAGE  9


LOC    OBJECT CODE    LINE  SOURCE TEXT
  VALUE

  0000                00425         extern  _OSCCONbits
  0000                00426         extern  _T0CONbits
  0000                00427         extern  _STATUSbits
  0000                00428         extern  _INTCON3bits
  0000                00429         extern  _INTCON2bits
  0000                00430         extern  _INTCONbits
  0000                00431         extern  _INTCON1bits
  0000                00432         extern  _STKPTRbits
  0000                00433         extern  _RXERRCNT
  0000                00434         extern  _TXERRCNT
  0000                00435         extern  _BRGCON1
  0000                00436         extern  _BRGCON2
  0000                00437         extern  _BRGCON3
  0000                00438         extern  _RXFCON0
  0000                00439         extern  _RXFCON1
  0000                00440         extern  _RXF6SIDH
  0000                00441         extern  _RXF6SIDL
  0000                00442         extern  _RXF6EIDH
  0000                00443         extern  _RXF6EIDL
  0000                00444         extern  _RXF7SIDH
  0000                00445         extern  _RXF7SIDL
  0000                00446         extern  _RXF7EIDH
  0000                00447         extern  _RXF7EIDL
  0000                00448         extern  _RXF8SIDH
  0000                00449         extern  _RXF8SIDL
  0000                00450         extern  _RXF8EIDH
  0000                00451         extern  _RXF8EIDL
  0000                00452         extern  _RXF9SIDH
  0000                00453         extern  _RXF9SIDL
  0000                00454         extern  _RXF9EIDH
  0000                00455         extern  _RXF9EIDL
  0000                00456         extern  _RXF10SIDH
  0000                00457         extern  _RXF10SIDL
  0000                00458         extern  _RXF10EIDH
  0000                00459         extern  _RXF10EIDL
  0000                00460         extern  _RXF11SIDH
  0000                00461         extern  _RXF11SIDL
  0000                00462         extern  _RXF11EIDH
  0000                00463         extern  _RXF11EIDL
  0000                00464         extern  _RXF12SIDH
  0000                00465         extern  _RXF12SIDL
  0000                00466         extern  _RXF12EIDH
  0000                00467         extern  _RXF12EIDL
  0000                00468         extern  _RXF13SIDH
  0000                00469         extern  _RXF13SIDL
  0000                00470         extern  _RXF13EIDH
  0000                00471         extern  _RXF13EIDL
  0000                00472         extern  _RXF14SIDH
  0000                00473         extern  _RXF14SIDL
  0000                00474         extern  _RXF14EIDH
  0000                00475         extern  _RXF14EIDL
  0000                00476         extern  _RXF15SIDH
  0000                00477         extern  _RXF15SIDL
gpasm-1.4.0 #1106 (Oct  6 2014)      main.asm   8-19-2015  19:58:20         PAGE 10


LOC    OBJECT CODE    LINE  SOURCE TEXT
  VALUE

  0000                00478         extern  _RXF15EIDH
  0000                00479         extern  _RXF15EIDL
  0000                00480         extern  _SDFLC
  0000                00481         extern  _RXFBCON0
  0000                00482         extern  _RXFBCON1
  0000                00483         extern  _RXFBCON2
  0000                00484         extern  _RXFBCON3
  0000                00485         extern  _RXFBCON4
  0000                00486         extern  _RXFBCON5
  0000                00487         extern  _RXFBCON6
  0000                00488         extern  _RXFBCON7
  0000                00489         extern  _MSEL0
  0000                00490         extern  _MSEL1
  0000                00491         extern  _MSEL2
  0000                00492         extern  _MSEL3
  0000                00493         extern  _BSEL0
  0000                00494         extern  _BIE0
  0000                00495         extern  _TXBIE
  0000                00496         extern  _B0CON
  0000                00497         extern  _B0SIDH
  0000                00498         extern  _B0SIDL
  0000                00499         extern  _B0EIDH
  0000                00500         extern  _B0EIDL
  0000                00501         extern  _B0DLC
  0000                00502         extern  _B0D0
  0000                00503         extern  _B0D1
  0000                00504         extern  _B0D2
  0000                00505         extern  _B0D3
  0000                00506         extern  _B0D4
  0000                00507         extern  _B0D5
  0000                00508         extern  _B0D6
  0000                00509         extern  _B0D7
  0000                00510         extern  _CANSTAT_RO9
  0000                00511         extern  _CANCON_RO9
  0000                00512         extern  _B1CON
  0000                00513         extern  _B1SIDH
  0000                00514         extern  _B1SIDL
  0000                00515         extern  _B1EIDH
  0000                00516         extern  _B1EIDL
  0000                00517         extern  _B1DLC
  0000                00518         extern  _B1D0
  0000                00519         extern  _B1D1
  0000                00520         extern  _B1D2
  0000                00521         extern  _B1D3
  0000                00522         extern  _B1D4
  0000                00523         extern  _B1D5
  0000                00524         extern  _B1D6
  0000                00525         extern  _B1D7
  0000                00526         extern  _CANSTAT_RO8
  0000                00527         extern  _CANCON_RO8
  0000                00528         extern  _B2CON
  0000                00529         extern  _B2SIDH
  0000                00530         extern  _B2SIDL
gpasm-1.4.0 #1106 (Oct  6 2014)      main.asm   8-19-2015  19:58:20         PAGE 11


LOC    OBJECT CODE    LINE  SOURCE TEXT
  VALUE

  0000                00531         extern  _B2EIDH
  0000                00532         extern  _B2EIDL
  0000                00533         extern  _B2DLC
  0000                00534         extern  _B2D0
  0000                00535         extern  _B2D1
  0000                00536         extern  _B2D2
  0000                00537         extern  _B2D3
  0000                00538         extern  _B2D4
  0000                00539         extern  _B2D5
  0000                00540         extern  _B2D6
  0000                00541         extern  _B2D7
  0000                00542         extern  _CANSTAT_RO7
  0000                00543         extern  _CANCON_RO7
  0000                00544         extern  _B3CON
  0000                00545         extern  _B3SIDH
  0000                00546         extern  _B3SIDL
  0000                00547         extern  _B3EIDH
  0000                00548         extern  _B3EIDL
  0000                00549         extern  _B3DLC
  0000                00550         extern  _B3D0
  0000                00551         extern  _B3D1
  0000                00552         extern  _B3D2
  0000                00553         extern  _B3D3
  0000                00554         extern  _B3D4
  0000                00555         extern  _B3D5
  0000                00556         extern  _B3D6
  0000                00557         extern  _B3D7
  0000                00558         extern  _CANSTAT_RO6
  0000                00559         extern  _CANCON_RO6
  0000                00560         extern  _B4CON
  0000                00561         extern  _B4SIDH
  0000                00562         extern  _B4SIDL
  0000                00563         extern  _B4EIDH
  0000                00564         extern  _B4EIDL
  0000                00565         extern  _B4DLC
  0000                00566         extern  _B4D0
  0000                00567         extern  _B4D1
  0000                00568         extern  _B4D2
  0000                00569         extern  _B4D3
  0000                00570         extern  _B4D4
  0000                00571         extern  _B4D5
  0000                00572         extern  _B4D6
  0000                00573         extern  _B4D7
  0000                00574         extern  _CANSTAT_RO5
  0000                00575         extern  _CANCON_RO5
  0000                00576         extern  _B5CON
  0000                00577         extern  _B5SIDH
  0000                00578         extern  _B5SIDL
  0000                00579         extern  _B5EIDH
  0000                00580         extern  _B5EIDL
  0000                00581         extern  _B5DLC
  0000                00582         extern  _B5D0
  0000                00583         extern  _B5D1
gpasm-1.4.0 #1106 (Oct  6 2014)      main.asm   8-19-2015  19:58:20         PAGE 12


LOC    OBJECT CODE    LINE  SOURCE TEXT
  VALUE

  0000                00584         extern  _B5D2
  0000                00585         extern  _B5D3
  0000                00586         extern  _B5D4
  0000                00587         extern  _B5D5
  0000                00588         extern  _B5D6
  0000                00589         extern  _B5D7
  0000                00590         extern  _CANSTAT_RO4
  0000                00591         extern  _CANCON_RO4
  0000                00592         extern  _RXF0SIDH
  0000                00593         extern  _RXF0SIDL
  0000                00594         extern  _RXF0EIDH
  0000                00595         extern  _RXF0EIDL
  0000                00596         extern  _RXF1SIDH
  0000                00597         extern  _RXF1SIDL
  0000                00598         extern  _RXF1EIDH
  0000                00599         extern  _RXF1EIDL
  0000                00600         extern  _RXF2SIDH
  0000                00601         extern  _RXF2SIDL
  0000                00602         extern  _RXF2EIDH
  0000                00603         extern  _RXF2EIDL
  0000                00604         extern  _RXF3SIDH
  0000                00605         extern  _RXF3SIDL
  0000                00606         extern  _RXF3EIDH
  0000                00607         extern  _RXF3EIDL
  0000                00608         extern  _RXF4SIDH
  0000                00609         extern  _RXF4SIDL
  0000                00610         extern  _RXF4EIDH
  0000                00611         extern  _RXF4EIDL
  0000                00612         extern  _RXF5SIDH
  0000                00613         extern  _RXF5SIDL
  0000                00614         extern  _RXF5EIDH
  0000                00615         extern  _RXF5EIDL
  0000                00616         extern  _RXM0SIDH
  0000                00617         extern  _RXM0SIDL
  0000                00618         extern  _RXM0EIDH
  0000                00619         extern  _RXM0EIDL
  0000                00620         extern  _RXM1SIDH
  0000                00621         extern  _RXM1SIDL
  0000                00622         extern  _RXM1EIDH
  0000                00623         extern  _RXM1EIDL
  0000                00624         extern  _TXB2CON
  0000                00625         extern  _TXB2SIDH
  0000                00626         extern  _TXB2SIDL
  0000                00627         extern  _TXB2EIDH
  0000                00628         extern  _TXB2EIDL
  0000                00629         extern  _TXB2DLC
  0000                00630         extern  _TXB2D0
  0000                00631         extern  _TXB2D1
  0000                00632         extern  _TXB2D2
  0000                00633         extern  _TXB2D3
  0000                00634         extern  _TXB2D4
  0000                00635         extern  _TXB2D5
  0000                00636         extern  _TXB2D6
gpasm-1.4.0 #1106 (Oct  6 2014)      main.asm   8-19-2015  19:58:20         PAGE 13


LOC    OBJECT CODE    LINE  SOURCE TEXT
  VALUE

  0000                00637         extern  _TXB2D7
  0000                00638         extern  _CANSTAT_RO3
  0000                00639         extern  _CANCON_RO3
  0000                00640         extern  _TXB1CON
  0000                00641         extern  _TXB1SIDH
  0000                00642         extern  _TXB1SIDL
  0000                00643         extern  _TXB1EIDH
  0000                00644         extern  _TXB1EIDL
  0000                00645         extern  _TXB1DLC
  0000                00646         extern  _TXB1D0
  0000                00647         extern  _TXB1D1
  0000                00648         extern  _TXB1D2
  0000                00649         extern  _TXB1D3
  0000                00650         extern  _TXB1D4
  0000                00651         extern  _TXB1D5
  0000                00652         extern  _TXB1D6
  0000                00653         extern  _TXB1D7
  0000                00654         extern  _CANSTAT_RO2
  0000                00655         extern  _CANCON_RO2
  0000                00656         extern  _TXB0CON
  0000                00657         extern  _TXB0SIDH
  0000                00658         extern  _TXB0SIDL
  0000                00659         extern  _TXB0EIDH
  0000                00660         extern  _TXB0EIDL
  0000                00661         extern  _TXB0DLC
  0000                00662         extern  _TXB0D0
  0000                00663         extern  _TXB0D1
  0000                00664         extern  _TXB0D2
  0000                00665         extern  _TXB0D3
  0000                00666         extern  _TXB0D4
  0000                00667         extern  _TXB0D5
  0000                00668         extern  _TXB0D6
  0000                00669         extern  _TXB0D7
  0000                00670         extern  _CANSTAT_RO1
  0000                00671         extern  _CANCON_RO1
  0000                00672         extern  _RXB1CON
  0000                00673         extern  _RXB1SIDH
  0000                00674         extern  _RXB1SIDL
  0000                00675         extern  _RXB1EIDH
  0000                00676         extern  _RXB1EIDL
  0000                00677         extern  _RXB1DLC
  0000                00678         extern  _RXB1D0
  0000                00679         extern  _RXB1D1
  0000                00680         extern  _RXB1D2
  0000                00681         extern  _RXB1D3
  0000                00682         extern  _RXB1D4
  0000                00683         extern  _RXB1D5
  0000                00684         extern  _RXB1D6
  0000                00685         extern  _RXB1D7
  0000                00686         extern  _CANSTAT_RO0
  0000                00687         extern  _CANCON_RO0
  0000                00688         extern  _CCP5CON
  0000                00689         extern  _CCPR5
gpasm-1.4.0 #1106 (Oct  6 2014)      main.asm   8-19-2015  19:58:20         PAGE 14


LOC    OBJECT CODE    LINE  SOURCE TEXT
  VALUE

  0000                00690         extern  _CCPR5L
  0000                00691         extern  _CCPR5H
  0000                00692         extern  _CCP4CON
  0000                00693         extern  _CCPR4
  0000                00694         extern  _CCPR4L
  0000                00695         extern  _CCPR4H
  0000                00696         extern  _CCP3CON
  0000                00697         extern  _CCPR3
  0000                00698         extern  _CCPR3L
  0000                00699         extern  _CCPR3H
  0000                00700         extern  _CCP2CON
  0000                00701         extern  _ECCP2CON
  0000                00702         extern  _CCPR2
  0000                00703         extern  _CCPR2L
  0000                00704         extern  _CCPR2H
  0000                00705         extern  _CTMUICON
  0000                00706         extern  _CTMUCONL
  0000                00707         extern  _CTMUCONH
  0000                00708         extern  _PADCFG1
  0000                00709         extern  _PMD2
  0000                00710         extern  _PMD1
  0000                00711         extern  _PMD0
  0000                00712         extern  _IOCB
  0000                00713         extern  _WPUB
  0000                00714         extern  _ANCON1
  0000                00715         extern  _ANCON0
  0000                00716         extern  _CM2CON
  0000                00717         extern  _CM2CON1
  0000                00718         extern  _CM1CON
  0000                00719         extern  _CM1CON1
  0000                00720         extern  _RXB0CON
  0000                00721         extern  _RXB0SIDH
  0000                00722         extern  _RXB0SIDL
  0000                00723         extern  _RXB0EIDH
  0000                00724         extern  _RXB0EIDL
  0000                00725         extern  _RXB0DLC
  0000                00726         extern  _RXB0D0
  0000                00727         extern  _RXB0D1
  0000                00728         extern  _RXB0D2
  0000                00729         extern  _RXB0D3
  0000                00730         extern  _RXB0D4
  0000                00731         extern  _RXB0D5
  0000                00732         extern  _RXB0D6
  0000                00733         extern  _RXB0D7
  0000                00734         extern  _CANSTAT
  0000                00735         extern  _CANCON
  0000                00736         extern  _CIOCON
  0000                00737         extern  _COMSTAT
  0000                00738         extern  _ECANCON
  0000                00739         extern  _EEDATA
  0000                00740         extern  _EEADR
  0000                00741         extern  _EEADRH
  0000                00742         extern  _PIE5
gpasm-1.4.0 #1106 (Oct  6 2014)      main.asm   8-19-2015  19:58:20         PAGE 15


LOC    OBJECT CODE    LINE  SOURCE TEXT
  VALUE

  0000                00743         extern  _PIR5
  0000                00744         extern  _IPR5
  0000                00745         extern  _TXREG2
  0000                00746         extern  _RCREG2
  0000                00747         extern  _SPBRG2
  0000                00748         extern  _SPBRGH2
  0000                00749         extern  _SPBRGH1
  0000                00750         extern  _EECON2
  0000                00751         extern  _EECON1
  0000                00752         extern  _PORTA
  0000                00753         extern  _PORTB
  0000                00754         extern  _PORTC
  0000                00755         extern  _PORTE
  0000                00756         extern  _TMR4
  0000                00757         extern  _T4CON
  0000                00758         extern  _LATA
  0000                00759         extern  _LATB
  0000                00760         extern  _LATC
  0000                00761         extern  _SLRCON
  0000                00762         extern  _ODCON
  0000                00763         extern  _TRISA
  0000                00764         extern  _TRISB
  0000                00765         extern  _TRISC
  0000                00766         extern  _CCPTMRS
  0000                00767         extern  _REFOCON
  0000                00768         extern  _OSCTUNE
  0000                00769         extern  _PSTR1CON
  0000                00770         extern  _PIE1
  0000                00771         extern  _PIR1
  0000                00772         extern  _IPR1
  0000                00773         extern  _PIE2
  0000                00774         extern  _PIR2
  0000                00775         extern  _IPR2
  0000                00776         extern  _PIE3
  0000                00777         extern  _PIR3
  0000                00778         extern  _IPR3
  0000                00779         extern  _RCSTA2
  0000                00780         extern  _BAUDCON1
  0000                00781         extern  _HLVDCON
  0000                00782         extern  _PR4
  0000                00783         extern  _T1GCON
  0000                00784         extern  _RCSTA
  0000                00785         extern  _RCSTA1
  0000                00786         extern  _TXSTA
  0000                00787         extern  _TXSTA1
  0000                00788         extern  _TXREG
  0000                00789         extern  _TXREG1
  0000                00790         extern  _RCREG
  0000                00791         extern  _RCREG1
  0000                00792         extern  _SPBRG
  0000                00793         extern  _SPBRG1
  0000                00794         extern  _T3GCON
  0000                00795         extern  _T3CON
gpasm-1.4.0 #1106 (Oct  6 2014)      main.asm   8-19-2015  19:58:20         PAGE 16


LOC    OBJECT CODE    LINE  SOURCE TEXT
  VALUE

  0000                00796         extern  _TMR3
  0000                00797         extern  _TMR3L
  0000                00798         extern  _TMR3H
  0000                00799         extern  _CMSTAT
  0000                00800         extern  _CMSTATUS
  0000                00801         extern  _CVRCON
  0000                00802         extern  _PIE4
  0000                00803         extern  _PIR4
  0000                00804         extern  _IPR4
  0000                00805         extern  _BAUDCON2
  0000                00806         extern  _TXSTA2
  0000                00807         extern  _CCP1CON
  0000                00808         extern  _ECCP1CON
  0000                00809         extern  _CCPR1
  0000                00810         extern  _CCPR1L
  0000                00811         extern  _CCPR1H
  0000                00812         extern  _ECCP1DEL
  0000                00813         extern  _PWM1CON
  0000                00814         extern  _ECCP1AS
  0000                00815         extern  _ADCON2
  0000                00816         extern  _ADCON1
  0000                00817         extern  _ADCON0
  0000                00818         extern  _ADRES
  0000                00819         extern  _ADRESL
  0000                00820         extern  _ADRESH
  0000                00821         extern  _SSPCON2
  0000                00822         extern  _SSPCON1
  0000                00823         extern  _SSPSTAT
  0000                00824         extern  _SSPADD
  0000                00825         extern  _SSPBUF
  0000                00826         extern  _T2CON
  0000                00827         extern  _PR2
  0000                00828         extern  _TMR2
  0000                00829         extern  _T1CON
  0000                00830         extern  _TMR1
  0000                00831         extern  _TMR1L
  0000                00832         extern  _TMR1H
  0000                00833         extern  _RCON
  0000                00834         extern  _WDTCON
  0000                00835         extern  _OSCCON2
  0000                00836         extern  _OSCCON
  0000                00837         extern  _T0CON
  0000                00838         extern  _TMR0
  0000                00839         extern  _TMR0L
  0000                00840         extern  _TMR0H
  0000                00841         extern  _STATUS
  0000                00842         extern  _FSR2L
  0000                00843         extern  _FSR2H
  0000                00844         extern  _PLUSW2
  0000                00845         extern  _PREINC2
  0000                00846         extern  _POSTDEC2
  0000                00847         extern  _POSTINC2
  0000                00848         extern  _INDF2
gpasm-1.4.0 #1106 (Oct  6 2014)      main.asm   8-19-2015  19:58:20         PAGE 17


LOC    OBJECT CODE    LINE  SOURCE TEXT
  VALUE

  0000                00849         extern  _BSR
  0000                00850         extern  _FSR1L
  0000                00851         extern  _FSR1H
  0000                00852         extern  _PLUSW1
  0000                00853         extern  _PREINC1
  0000                00854         extern  _POSTDEC1
  0000                00855         extern  _POSTINC1
  0000                00856         extern  _INDF1
  0000                00857         extern  _WREG
  0000                00858         extern  _FSR0L
  0000                00859         extern  _FSR0H
  0000                00860         extern  _PLUSW0
  0000                00861         extern  _PREINC0
  0000                00862         extern  _POSTDEC0
  0000                00863         extern  _POSTINC0
  0000                00864         extern  _INDF0
  0000                00865         extern  _INTCON3
  0000                00866         extern  _INTCON2
  0000                00867         extern  _INTCON
  0000                00868         extern  _INTCON1
  0000                00869         extern  _PROD
  0000                00870         extern  _PRODL
  0000                00871         extern  _PRODH
  0000                00872         extern  _TABLAT
  0000                00873         extern  _TBLPTR
  0000                00874         extern  _TBLPTRL
  0000                00875         extern  _TBLPTRH
  0000                00876         extern  _TBLPTRU
  0000                00877         extern  _PC
  0000                00878         extern  _PCL
  0000                00879         extern  _PCLATH
  0000                00880         extern  _PCLATU
  0000                00881         extern  _STKPTR
  0000                00882         extern  _TOS
  0000                00883         extern  _TOSL
  0000                00884         extern  _TOSH
  0000                00885         extern  _TOSU
                      00886 
                      00887 ;--------------------------------------------------------
                      00888 ;       Equates to used internal registers
                      00889 ;--------------------------------------------------------
  00000FD8            00890 STATUS  equ     0xfd8
  00000FF9            00891 PCL     equ     0xff9
  00000FFA            00892 PCLATH  equ     0xffa
  00000FFB            00893 PCLATU  equ     0xffb
  00000FE8            00894 WREG    equ     0xfe8
  00000FE9            00895 FSR0L   equ     0xfe9
  00000FEA            00896 FSR0H   equ     0xfea
  00000FE1            00897 FSR1L   equ     0xfe1
  00000FD9            00898 FSR2L   equ     0xfd9
  00000FEF            00899 INDF0   equ     0xfef
  00000FE6            00900 POSTINC1        equ     0xfe6
  00000FE5            00901 POSTDEC1        equ     0xfe5
gpasm-1.4.0 #1106 (Oct  6 2014)      main.asm   8-19-2015  19:58:20         PAGE 18


LOC    OBJECT CODE    LINE  SOURCE TEXT
  VALUE

  00000FE4            00902 PREINC1 equ     0xfe4
  00000FDB            00903 PLUSW2  equ     0xfdb
  00000FF3            00904 PRODL   equ     0xff3
                      00905 
                      00906 
                      00907         idata
000000 00 00 00 00    00908 _timeout        db      0x00, 0x00, 0x00, 0x00
                      00909 
                      00910 
                      00911 ; Internal registers
                      00912 .registers      udata_ovr       0x0000
000000                00913 r0x00   res     1
000001                00914 r0x01   res     1
000002                00915 r0x02   res     1
000003                00916 r0x03   res     1
000004                00917 r0x04   res     1
000005                00918 r0x05   res     1
000006                00919 r0x06   res     1
000007                00920 r0x07   res     1
000008                00921 r0x08   res     1
000009                00922 r0x09   res     1
00000A                00923 r0x0a   res     1
00000B                00924 r0x0b   res     1
                      00925 
                      00926 udata_main_0    udata
000000                00927 _gbuffer        res     64
                      00928 
                      00929 
                      00930 ustat_main_00   udata   0X0200
000200                00931 _stack          res     254
0002FE                00932 _stack_end      res     1
                      00933 
                      00934 ;--------------------------------------------------------
                      00935 ; interrupt vector
                      00936 ;--------------------------------------------------------
                      00937 
                      00938 ;--------------------------------------------------------
                      00939 ; global & static initialisations
                      00940 ;--------------------------------------------------------
                      00941 ; ; Starting pCode block
                      00942 S_main__interrupt_at_high_vector        code    0X000008
000008                00943 _interrupt_at_high_vector:
000008 EF04 F008      00944         goto 0x1000 + 0x0008
                      00945         
                      00946 ; ; Starting pCode block
                      00947 S_main__interrupt_at_low_vector code    0X000018
000018                00948 _interrupt_at_low_vector:
000018 EF0C F008      00949         goto 0x1000 + 0x0018
                      00950         
                      00951 ; I code from now on!
                      00952 ; ; Starting pCode block
                      00953 S_main__main    code
000000                00954 _main:
gpasm-1.4.0 #1106 (Oct  6 2014)      main.asm   8-19-2015  19:58:20         PAGE 19


LOC    OBJECT CODE    LINE  SOURCE TEXT
  VALUE

                      00955 ;       .line   336; main.c     OSCCONbits.IRCF2 = 1;
000000 8C??           00956         BSF     _OSCCONbits, 6
                      00957 ;       .line   337; main.c     OSCCONbits.IRCF1 = 1;
000002 8A??           00958         BSF     _OSCCONbits, 5
                      00959 ;       .line   338; main.c     OSCCONbits.IRCF0 = 1;
000004 88??           00960         BSF     _OSCCONbits, 4
                      00961 ;       .line   341; main.c     OSCCONbits.HFIOFS = 1;
000006 84??           00962         BSF     _OSCCONbits, 2
                      00963 ;       .line   344; main.c     OSCTUNEbits.PLLEN = 1;
000008 8C??           00964         BSF     _OSCTUNEbits, 6
                      00965 ;       .line   349; main.c     TRISBbits.TRISB0 = 0;
00000A 90??           00966         BCF     _TRISBbits, 0
                      00967 ;       .line   352; main.c     UART_init();
00000C EC?? F0??      00968         CALL    _UART_init
                      00969 ;       .line   355; main.c     for(hbeat=0; hbeat<PAGE_SIZE; hbeat++)
Message[1301]: Using default destination of 0 (Access Bank).
000010 6A??           00970         CLRF    r0x00
Message[1301]: Using default destination of 0 (Access Bank).
000012 6A??           00971         CLRF    r0x01
Message[1301]: Using default destination of 0 (Access Bank).
000014 6A??           00972         CLRF    r0x02
Message[1301]: Using default destination of 0 (Access Bank).
000016 6A??           00973         CLRF    r0x03
000018                00974 _00118_DS_:
                      00975 ;       .line   357; main.c     gbuffer[hbeat] = 0xFF;
000018 0E??           00976         MOVLW   LOW(_gbuffer)
00001A 24??           00977         ADDWF   r0x00, W
Message[1301]: Using default destination of 0 (Access Bank).
00001C 6E??           00978         MOVWF   r0x04
00001E 0E??           00979         MOVLW   HIGH(_gbuffer)
000020 20??           00980         ADDWFC  r0x01, W
Message[1301]: Using default destination of 0 (Access Bank).
000022 6E??           00981         MOVWF   r0x05
000024 C??? F???      00982         MOVFF   r0x04, FSR0L
000028 C??? F???      00983         MOVFF   r0x05, FSR0H
Message[1301]: Using default destination of 0 (Access Bank).
00002C 68EF           00984         SETF    INDF0
                      00985 ;       .line   355; main.c     for(hbeat=0; hbeat<PAGE_SIZE; hbeat++)
00002E 2A??           00986         INCF    r0x00, F
000030 E3??           00987         BNC     _00141_DS_
000032 2A??           00988         INCF    r0x01, F
000034 E3??           00989         BNC     _00141_DS_
000036 4A??           00990         INFSNZ  r0x02, F
000038 2A??           00991         INCF    r0x03, F
00003A                00992 _00141_DS_:
00003A 0E00           00993         MOVLW   0x00
00003C 5C??           00994         SUBWF   r0x03, W
00003E E1??           00995         BNZ     _00142_DS_
000040 0E00           00996         MOVLW   0x00
000042 5C??           00997         SUBWF   r0x02, W
000044 E1??           00998         BNZ     _00142_DS_
000046 0E00           00999         MOVLW   0x00
000048 5C??           01000         SUBWF   r0x01, W
gpasm-1.4.0 #1106 (Oct  6 2014)      main.asm   8-19-2015  19:58:20         PAGE 20


LOC    OBJECT CODE    LINE  SOURCE TEXT
  VALUE

00004A E1??           01001         BNZ     _00142_DS_
00004C 0E40           01002         MOVLW   0x40
00004E 5C??           01003         SUBWF   r0x00, W
000050                01004 _00142_DS_:
000050 E3??           01005         BNC     _00118_DS_
000052 ????           01006         BANKSEL _timeout
                      01007 ;       .line   361; main.c     timeout = 0x00000000;
000054 6B??           01008         CLRF    _timeout, B
                      01009 ; removed redundant BANKSEL
000056 6B??           01010         CLRF    (_timeout + 1), B
                      01011 ; removed redundant BANKSEL
000058 6B??           01012         CLRF    (_timeout + 2), B
                      01013 ; removed redundant BANKSEL
00005A 6B??           01014         CLRF    (_timeout + 3), B
00005C                01015 _00116_DS_:
                      01016 ;       .line   364; main.c     if(hbeat == 0x03F){
00005C 50??           01017         MOVF    r0x00, W
00005E 0A3F           01018         XORLW   0x3f
000060 E1??           01019         BNZ     _00143_DS_
000062 50??           01020         MOVF    r0x01, W
000064 E1??           01021         BNZ     _00143_DS_
000066 50??           01022         MOVF    r0x02, W
000068 E1??           01023         BNZ     _00143_DS_
00006A 50??           01024         MOVF    r0x03, W
00006C E0??           01025         BZ      _00144_DS_
00006E                01026 _00143_DS_:
00006E D???           01027         BRA     _00113_DS_
000070                01028 _00144_DS_:
                      01029 ;       .line   365; main.c     LED = 1;
000070 80??           01030         BSF     _LATBbits, 0
                      01031 ;       .line   366; main.c     hbeat++;
000072 2A??           01032         INCF    r0x00, F
000074 E3??           01033         BNC     _00145_DS_
000076 2A??           01034         INCF    r0x01, F
000078 E3??           01035         BNC     _00145_DS_
00007A 4A??           01036         INFSNZ  r0x02, F
00007C 2A??           01037         INCF    r0x03, F
00007E                01038 _00145_DS_:
00007E D???           01039         BRA     _00114_DS_
000080                01040 _00113_DS_:
                      01041 ;       .line   368; main.c     else if( hbeat == 0x1FF ){
000080 50??           01042         MOVF    r0x00, W
000082 0AFF           01043         XORLW   0xff
000084 E1??           01044         BNZ     _00146_DS_
000086 50??           01045         MOVF    r0x01, W
000088 0A01           01046         XORLW   0x01
00008A E1??           01047         BNZ     _00146_DS_
00008C 50??           01048         MOVF    r0x02, W
00008E E1??           01049         BNZ     _00146_DS_
000090 50??           01050         MOVF    r0x03, W
000092 E0??           01051         BZ      _00147_DS_
000094                01052 _00146_DS_:
000094 D???           01053         BRA     _00110_DS_
gpasm-1.4.0 #1106 (Oct  6 2014)      main.asm   8-19-2015  19:58:20         PAGE 21


LOC    OBJECT CODE    LINE  SOURCE TEXT
  VALUE

000096                01054 _00147_DS_:
                      01055 ;       .line   369; main.c     LED = 0;
000096 90??           01056         BCF     _LATBbits, 0
                      01057 ;       .line   370; main.c     hbeat++;
000098 2A??           01058         INCF    r0x00, F
00009A E3??           01059         BNC     _00148_DS_
00009C 2A??           01060         INCF    r0x01, F
00009E E3??           01061         BNC     _00148_DS_
0000A0 4A??           01062         INFSNZ  r0x02, F
0000A2 2A??           01063         INCF    r0x03, F
0000A4                01064 _00148_DS_:
0000A4 D???           01065         BRA     _00114_DS_
0000A6                01066 _00110_DS_:
                      01067 ;       .line   372; main.c     else if (hbeat == 0x9FF){
0000A6 50??           01068         MOVF    r0x00, W
0000A8 0AFF           01069         XORLW   0xff
0000AA E1??           01070         BNZ     _00149_DS_
0000AC 50??           01071         MOVF    r0x01, W
0000AE 0A09           01072         XORLW   0x09
0000B0 E1??           01073         BNZ     _00149_DS_
0000B2 50??           01074         MOVF    r0x02, W
0000B4 E1??           01075         BNZ     _00149_DS_
0000B6 50??           01076         MOVF    r0x03, W
0000B8 E0??           01077         BZ      _00150_DS_
0000BA                01078 _00149_DS_:
0000BA D???           01079         BRA     _00107_DS_
0000BC                01080 _00150_DS_:
                      01081 ;       .line   373; main.c     hbeat = 0x00;
Message[1301]: Using default destination of 0 (Access Bank).
0000BC 6A??           01082         CLRF    r0x00
Message[1301]: Using default destination of 0 (Access Bank).
0000BE 6A??           01083         CLRF    r0x01
Message[1301]: Using default destination of 0 (Access Bank).
0000C0 6A??           01084         CLRF    r0x02
Message[1301]: Using default destination of 0 (Access Bank).
0000C2 6A??           01085         CLRF    r0x03
0000C4 D???           01086         BRA     _00114_DS_
0000C6                01087 _00107_DS_:
                      01088 ;       .line   376; main.c     hbeat++;
0000C6 2A??           01089         INCF    r0x00, F
0000C8 E3??           01090         BNC     _00114_DS_
0000CA 2A??           01091         INCF    r0x01, F
0000CC E3??           01092         BNC     _00114_DS_
0000CE 4A??           01093         INFSNZ  r0x02, F
0000D0 2A??           01094         INCF    r0x03, F
0000D2                01095 _00151_DS_:
0000D2                01096 _00114_DS_:
                      01097 ;       .line   378; main.c     bootloader_state_machine(UART_getchar(0xFF));
Message[1301]: Using default destination of 0 (Access Bank).
0000D2 6AE5           01098         CLRF    POSTDEC1
0000D4 0EFF           01099         MOVLW   0xff
Message[1301]: Using default destination of 0 (Access Bank).
0000D6 68E5           01100         SETF    POSTDEC1
gpasm-1.4.0 #1106 (Oct  6 2014)      main.asm   8-19-2015  19:58:20         PAGE 22


LOC    OBJECT CODE    LINE  SOURCE TEXT
  VALUE

0000D8 EC?? F0??      01101         CALL    _UART_getchar
0000DC 52E6           01102         MOVF    POSTINC1, F
0000DE 52E6           01103         MOVF    POSTINC1, F
Message[1301]: Using default destination of 0 (Access Bank).
0000E0 6EE5           01104         MOVWF   POSTDEC1
0000E2 EC?? F0??      01105         CALL    _bootloader_state_machine
0000E6 52E6           01106         MOVF    POSTINC1, F
0000E8 D???           01107         BRA     _00116_DS_
0000EA 0012           01108         RETURN  
                      01109 
                      01110 ; ; Starting pCode block
                      01111 S_main__write_flash     code
000000                01112 _write_flash:
                      01113 ;       .line   590; main.c     static void write_flash(u32 address, u8 *buffer, u8 length)
000000 CFD9 FFE5      01114         MOVFF   FSR2L, POSTDEC1
000004 CFE1 FFD9      01115         MOVFF   FSR1L, FSR2L
000008 C??? F???      01116         MOVFF   r0x00, POSTDEC1
00000C C??? F???      01117         MOVFF   r0x01, POSTDEC1
000010 C??? F???      01118         MOVFF   r0x02, POSTDEC1
000014 C??? F???      01119         MOVFF   r0x03, POSTDEC1
000018 C??? F???      01120         MOVFF   r0x04, POSTDEC1
00001C C??? F???      01121         MOVFF   r0x05, POSTDEC1
000020 C??? F???      01122         MOVFF   r0x06, POSTDEC1
000024 C??? F???      01123         MOVFF   r0x07, POSTDEC1
000028 C??? F???      01124         MOVFF   r0x08, POSTDEC1
00002C C??? F???      01125         MOVFF   r0x09, POSTDEC1
000030 C??? F???      01126         MOVFF   r0x0a, POSTDEC1
000034 C??? F???      01127         MOVFF   r0x0b, POSTDEC1
000038 0E02           01128         MOVLW   0x02
00003A CFDB F000      01129         MOVFF   PLUSW2, r0x00
00003E 0E03           01130         MOVLW   0x03
000040 CFDB F000      01131         MOVFF   PLUSW2, r0x01
000044 0E04           01132         MOVLW   0x04
000046 CFDB F000      01133         MOVFF   PLUSW2, r0x02
00004A 0E05           01134         MOVLW   0x05
00004C CFDB F000      01135         MOVFF   PLUSW2, r0x03
000050 0E06           01136         MOVLW   0x06
000052 CFDB F000      01137         MOVFF   PLUSW2, r0x04
000056 0E07           01138         MOVLW   0x07
000058 CFDB F000      01139         MOVFF   PLUSW2, r0x05
00005C 0E08           01140         MOVLW   0x08
00005E CFDB F000      01141         MOVFF   PLUSW2, r0x06
000062 0E09           01142         MOVLW   0x09
000064 CFDB F000      01143         MOVFF   PLUSW2, r0x07
                      01144 ;       .line   594; main.c     PIR4bits.EEIF = 0;
000068 9C??           01145         BCF     _PIR4bits, 6
                      01146 ;       .line   596; main.c     TBLPTRL = (address) & 0xC0;
00006A 0EC0           01147         MOVLW   0xc0
00006C 14??           01148         ANDWF   r0x00, W
Message[1301]: Using default destination of 0 (Access Bank).
00006E 6E??           01149         MOVWF   r0x08
Message[1301]: Using default destination of 0 (Access Bank).
000070 6A??           01150         CLRF    r0x09
gpasm-1.4.0 #1106 (Oct  6 2014)      main.asm   8-19-2015  19:58:20         PAGE 23


LOC    OBJECT CODE    LINE  SOURCE TEXT
  VALUE

Message[1301]: Using default destination of 0 (Access Bank).
000072 6A??           01151         CLRF    r0x0a
Message[1301]: Using default destination of 0 (Access Bank).
000074 6A??           01152         CLRF    r0x0b
000076 50??           01153         MOVF    r0x08, W
Message[1301]: Using default destination of 0 (Access Bank).
000078 6E??           01154         MOVWF   _TBLPTRL
                      01155 ;       .line   597; main.c     TBLPTRH = (address >> 8) & 0xFF;
00007A 50??           01156         MOVF    r0x01, W
Message[1301]: Using default destination of 0 (Access Bank).
00007C 6E??           01157         MOVWF   r0x08
00007E 50??           01158         MOVF    r0x02, W
Message[1301]: Using default destination of 0 (Access Bank).
000080 6E??           01159         MOVWF   r0x09
000082 50??           01160         MOVF    r0x03, W
Message[1301]: Using default destination of 0 (Access Bank).
000084 6E??           01161         MOVWF   r0x0a
Message[1301]: Using default destination of 0 (Access Bank).
000086 6A??           01162         CLRF    r0x0b
Message[1301]: Using default destination of 0 (Access Bank).
000088 6A??           01163         CLRF    r0x09
Message[1301]: Using default destination of 0 (Access Bank).
00008A 6A??           01164         CLRF    r0x0a
Message[1301]: Using default destination of 0 (Access Bank).
00008C 6A??           01165         CLRF    r0x0b
00008E 50??           01166         MOVF    r0x08, W
Message[1301]: Using default destination of 0 (Access Bank).
000090 6E??           01167         MOVWF   _TBLPTRH
                      01168 ;       .line   598; main.c     TBLPTRU = (address >> 16) & 0xFF;
000092 50??           01169         MOVF    r0x02, W
Message[1301]: Using default destination of 0 (Access Bank).
000094 6E??           01170         MOVWF   r0x00
000096 50??           01171         MOVF    r0x03, W
Message[1301]: Using default destination of 0 (Access Bank).
000098 6E??           01172         MOVWF   r0x01
Message[1301]: Using default destination of 0 (Access Bank).
00009A 6A??           01173         CLRF    r0x02
Message[1301]: Using default destination of 0 (Access Bank).
00009C 6A??           01174         CLRF    r0x03
Message[1301]: Using default destination of 0 (Access Bank).
00009E 6A??           01175         CLRF    r0x01
Message[1301]: Using default destination of 0 (Access Bank).
0000A0 6A??           01176         CLRF    r0x02
Message[1301]: Using default destination of 0 (Access Bank).
0000A2 6A??           01177         CLRF    r0x03
0000A4 50??           01178         MOVF    r0x00, W
Message[1301]: Using default destination of 0 (Access Bank).
0000A6 6E??           01179         MOVWF   _TBLPTRU
                      01180 ;       .line   604; main.c     for (counter = 0; counter < length; counter++) {
Message[1301]: Using default destination of 0 (Access Bank).
0000A8 6A??           01181         CLRF    r0x00
Message[1301]: Using default destination of 0 (Access Bank).
0000AA 6A??           01182         CLRF    r0x01
gpasm-1.4.0 #1106 (Oct  6 2014)      main.asm   8-19-2015  19:58:20         PAGE 24


LOC    OBJECT CODE    LINE  SOURCE TEXT
  VALUE

0000AC                01183 _00291_DS_:
0000AC C??? F???      01184         MOVFF   r0x07, r0x02
Message[1301]: Using default destination of 0 (Access Bank).
0000B0 6A??           01185         CLRF    r0x03
0000B2 50??           01186         MOVF    r0x01, W
0000B4 0F80           01187         ADDLW   0x80
Message[1301]: Using default destination of 0 (Access Bank).
0000B6 6EF3           01188         MOVWF   PRODL
0000B8 50??           01189         MOVF    r0x03, W
0000BA 0F80           01190         ADDLW   0x80
0000BC 5CF3           01191         SUBWF   PRODL, W
0000BE E1??           01192         BNZ     _00311_DS_
0000C0 50??           01193         MOVF    r0x02, W
0000C2 5C??           01194         SUBWF   r0x00, W
0000C4                01195 _00311_DS_:
0000C4 E2??           01196         BC      _00286_DS_
                      01197 ;       .line   605; main.c     TABLAT = buffer[counter]; /* present data to table latch */
0000C6 50??           01198         MOVF    r0x00, W
0000C8 24??           01199         ADDWF   r0x04, W
Message[1301]: Using default destination of 0 (Access Bank).
0000CA 6E??           01200         MOVWF   r0x02
0000CC 50??           01201         MOVF    r0x01, W
0000CE 20??           01202         ADDWFC  r0x05, W
Message[1301]: Using default destination of 0 (Access Bank).
0000D0 6E??           01203         MOVWF   r0x03
Message[1301]: Using default destination of 0 (Access Bank).
0000D2 6AE8           01204         CLRF    WREG
0000D4 BE??           01205         BTFSC   r0x01, 7
Message[1301]: Using default destination of 0 (Access Bank).
0000D6 68E8           01206         SETF    WREG
0000D8 20??           01207         ADDWFC  r0x06, W
Message[1301]: Using default destination of 0 (Access Bank).
0000DA 6E??           01208         MOVWF   r0x08
0000DC C??? F???      01209         MOVFF   r0x02, FSR0L
0000E0 C??? F???      01210         MOVFF   r0x03, PRODL
0000E4 50??           01211         MOVF    r0x08, W
0000E6 EC?? F0??      01212         CALL    __gptrget1
Message[1301]: Using default destination of 0 (Access Bank).
0000EA 6E??           01213         MOVWF   _TABLAT
0000EC 000D           01214         TBLWT*+
                      01215         
                      01216 ;       .line   604; main.c     for (counter = 0; counter < length; counter++) {
0000EE 4A??           01217         INFSNZ  r0x00, F
0000F0 2A??           01218         INCF    r0x01, F
0000F2 D???           01219         BRA     _00291_DS_
0000F4                01220 _00286_DS_:
0000F4 000A           01221         TBLRD*-
                      01222         
                      01223 ;       .line   631; main.c     EECON1 = 0x84; /* 0b10000100 */
0000F6 0E84           01224         MOVLW   0x84
Message[1301]: Using default destination of 0 (Access Bank).
0000F8 6E??           01225         MOVWF   _EECON1
                      01226 ;       .line   633; main.c     INTCONbits.GIE = 0;
gpasm-1.4.0 #1106 (Oct  6 2014)      main.asm   8-19-2015  19:58:20         PAGE 25


LOC    OBJECT CODE    LINE  SOURCE TEXT
  VALUE

0000FA 9E??           01227         BCF     _INTCONbits, 7
                      01228 ;       .line   635; main.c     EECON2 = 0x55;
0000FC 0E55           01229         MOVLW   0x55
Message[1301]: Using default destination of 0 (Access Bank).
0000FE 6E??           01230         MOVWF   _EECON2
                      01231 ;       .line   636; main.c     EECON2 = 0xAA;
000100 0EAA           01232         MOVLW   0xaa
Message[1301]: Using default destination of 0 (Access Bank).
000102 6E??           01233         MOVWF   _EECON2
                      01234 ;       .line   638; main.c     EECON1bits.WR = 1;  /* WR = 1; start write or erase operation */
000104 82??           01235         BSF     _EECON1bits, 1
                      01236 ;       .line   644; main.c     INTCONbits.GIE = 1;
000106 8E??           01237         BSF     _INTCONbits, 7
000108                01238 _00287_DS_:
                      01239 ;       .line   646; main.c     while (!PIR4bits.EEIF);
000108 AC??           01240         BTFSS   _PIR4bits, 6
00010A D???           01241         BRA     _00287_DS_
                      01242 ;       .line   647; main.c     PIR4bits.EEIF = 0;
00010C 9C??           01243         BCF     _PIR4bits, 6
                      01244 ;       .line   648; main.c     EECON1bits.WREN = 0;
00010E 94??           01245         BCF     _EECON1bits, 2
000110 CFE4 F000      01246         MOVFF   PREINC1, r0x0b
000114 CFE4 F000      01247         MOVFF   PREINC1, r0x0a
000118 CFE4 F000      01248         MOVFF   PREINC1, r0x09
00011C CFE4 F000      01249         MOVFF   PREINC1, r0x08
000120 CFE4 F000      01250         MOVFF   PREINC1, r0x07
000124 CFE4 F000      01251         MOVFF   PREINC1, r0x06
000128 CFE4 F000      01252         MOVFF   PREINC1, r0x05
00012C CFE4 F000      01253         MOVFF   PREINC1, r0x04
000130 CFE4 F000      01254         MOVFF   PREINC1, r0x03
000134 CFE4 F000      01255         MOVFF   PREINC1, r0x02
000138 CFE4 F000      01256         MOVFF   PREINC1, r0x01
00013C CFE4 F000      01257         MOVFF   PREINC1, r0x00
000140 CFE4 FFD9      01258         MOVFF   PREINC1, FSR2L
000144 0012           01259         RETURN  
                      01260 
                      01261 ; ; Starting pCode block
                      01262 S_main__erase_flash     code
000000                01263 _erase_flash:
                      01264 ;       .line   552; main.c     static void erase_flash(u32 address)
000000 CFD9 FFE5      01265         MOVFF   FSR2L, POSTDEC1
000004 CFE1 FFD9      01266         MOVFF   FSR1L, FSR2L
000008 C??? F???      01267         MOVFF   r0x00, POSTDEC1
00000C C??? F???      01268         MOVFF   r0x01, POSTDEC1
000010 C??? F???      01269         MOVFF   r0x02, POSTDEC1
000014 C??? F???      01270         MOVFF   r0x03, POSTDEC1
000018 0E02           01271         MOVLW   0x02
00001A CFDB F000      01272         MOVFF   PLUSW2, r0x00
00001E 0E03           01273         MOVLW   0x03
000020 CFDB F000      01274         MOVFF   PLUSW2, r0x01
000024 0E04           01275         MOVLW   0x04
000026 CFDB F000      01276         MOVFF   PLUSW2, r0x02
00002A 0E05           01277         MOVLW   0x05
gpasm-1.4.0 #1106 (Oct  6 2014)      main.asm   8-19-2015  19:58:20         PAGE 26


LOC    OBJECT CODE    LINE  SOURCE TEXT
  VALUE

00002C CFDB F000      01278         MOVFF   PLUSW2, r0x03
                      01279 ;       .line   554; main.c     PIR4bits.EEIF = 0;
000030 9C??           01280         BCF     _PIR4bits, 6
                      01281 ;       .line   556; main.c     TBLPTRL = (address) & 0xC0;
000032 0EC0           01282         MOVLW   0xc0
000034 14??           01283         ANDWF   r0x00, W
Message[1301]: Using default destination of 0 (Access Bank).
000036 6E??           01284         MOVWF   _TBLPTRL
                      01285 ;       .line   557; main.c     TBLPTRH = (address >> 8) & 0xFF;
000038 50??           01286         MOVF    r0x01, W
Message[1301]: Using default destination of 0 (Access Bank).
00003A 6E??           01287         MOVWF   _TBLPTRH
                      01288 ;       .line   558; main.c     TBLPTRU = (address >> 16) & 0xFF;
00003C 50??           01289         MOVF    r0x02, W
Message[1301]: Using default destination of 0 (Access Bank).
00003E 6E??           01290         MOVWF   _TBLPTRU
                      01291 ;       .line   571; main.c     EECON1 = 0x94; /* 0b10010100 */
000040 0E94           01292         MOVLW   0x94
Message[1301]: Using default destination of 0 (Access Bank).
000042 6E??           01293         MOVWF   _EECON1
                      01294 ;       .line   573; main.c     EECON2 = 0x55;          /* unlock sequence */
000044 0E55           01295         MOVLW   0x55
Message[1301]: Using default destination of 0 (Access Bank).
000046 6E??           01296         MOVWF   _EECON2
                      01297 ;       .line   574; main.c     EECON2 = 0xAA;          /* unlock sequence */
000048 0EAA           01298         MOVLW   0xaa
Message[1301]: Using default destination of 0 (Access Bank).
00004A 6E??           01299         MOVWF   _EECON2
                      01300 ;       .line   575; main.c     EECON1bits.WR = 1;      /* start write or erase operation */
00004C 82??           01301         BSF     _EECON1bits, 1
                      01302 ;       .line   577; main.c     INTCONbits.GIE = 1;
00004E 8E??           01303         BSF     _INTCONbits, 7
000050                01304 _00278_DS_:
                      01305 ;       .line   579; main.c     while (!PIR4bits.EEIF);
000050 AC??           01306         BTFSS   _PIR4bits, 6
000052 D???           01307         BRA     _00278_DS_
                      01308 ;       .line   580; main.c     PIR4bits.EEIF = 0;
000054 9C??           01309         BCF     _PIR4bits, 6
                      01310 ;       .line   581; main.c     EECON1bits.WREN = 0;
000056 94??           01311         BCF     _EECON1bits, 2
                      01312 ;       .line   582; main.c     EECON1bits.FREE = 0;    /* back to write operation */
000058 98??           01313         BCF     _EECON1bits, 4
                      01314 ;       .line   584; main.c     INTCONbits.GIE = 0;
00005A 9E??           01315         BCF     _INTCONbits, 7
00005C CFE4 F000      01316         MOVFF   PREINC1, r0x03
000060 CFE4 F000      01317         MOVFF   PREINC1, r0x02
000064 CFE4 F000      01318         MOVFF   PREINC1, r0x01
000068 CFE4 F000      01319         MOVFF   PREINC1, r0x00
00006C CFE4 FFD9      01320         MOVFF   PREINC1, FSR2L
000070 0012           01321         RETURN  
                      01322 
                      01323 ; ; Starting pCode block
                      01324 S_main__jump_to_app     code
gpasm-1.4.0 #1106 (Oct  6 2014)      main.asm   8-19-2015  19:58:20         PAGE 27


LOC    OBJECT CODE    LINE  SOURCE TEXT
  VALUE

000000                01325 _jump_to_app:
                      01326 ;       .line   538; main.c     static void jump_to_app(void)
000000 CFD9 FFE5      01327         MOVFF   FSR2L, POSTDEC1
000004 CFE1 FFD9      01328         MOVFF   FSR1L, FSR2L
                      01329 ;       .line   541; main.c     TRISBbits.TRISB0 = 0;
000008 90??           01330         BCF     _TRISBbits, 0
                      01331 ;       .line   543; main.c     RCON |= 0x93; /* Set all flags as just after reset */
00000A 0E93           01332         MOVLW   0x93
00000C 12??           01333         IORWF   _RCON, F
00000E EF00 F008      01334         goto 0x1000
                      01335         
000012 CFE4 FFD9      01336         MOVFF   PREINC1, FSR2L
000016 0012           01337         RETURN  
                      01338 
                      01339 ; ; Starting pCode block
                      01340 S_main__bootloader_state_machine        code
000000                01341 _bootloader_state_machine:
                      01342 ;       .line   461; main.c     static void bootloader_state_machine(u8 state)
000000 CFD9 FFE5      01343         MOVFF   FSR2L, POSTDEC1
000004 CFE1 FFD9      01344         MOVFF   FSR1L, FSR2L
000008 C??? F???      01345         MOVFF   r0x00, POSTDEC1
00000C C??? F???      01346         MOVFF   r0x01, POSTDEC1
000010 C??? F???      01347         MOVFF   r0x02, POSTDEC1
000014 C??? F???      01348         MOVFF   r0x03, POSTDEC1
000018 C??? F???      01349         MOVFF   r0x04, POSTDEC1
00001C C??? F???      01350         MOVFF   r0x05, POSTDEC1
000020 C??? F???      01351         MOVFF   r0x06, POSTDEC1
000024 C??? F???      01352         MOVFF   r0x07, POSTDEC1
000028 C??? F???      01353         MOVFF   r0x08, POSTDEC1
00002C C??? F???      01354         MOVFF   r0x09, POSTDEC1
000030 C??? F???      01355         MOVFF   r0x0a, POSTDEC1
000034 C??? F???      01356         MOVFF   r0x0b, POSTDEC1
000038 0E02           01357         MOVLW   0x02
00003A CFDB F000      01358         MOVFF   PLUSW2, r0x00
                      01359 ;       .line   467; main.c     switch (state)
00003E 0E10           01360         MOVLW   0x10
000040 5C??           01361         SUBWF   r0x00, W
000042 A0D8           01362         BTFSS   STATUS, 0
000044 D???           01363         BRA     _00224_DS_
000046 0E17           01364         MOVLW   0x17
000048 5C??           01365         SUBWF   r0x00, W
00004A B0D8           01366         BTFSC   STATUS, 0
00004C D???           01367         BRA     _00224_DS_
00004E 0EF0           01368         MOVLW   0xf0
000050 26??           01369         ADDWF   r0x00, F
Message[1301]: Using default destination of 0 (Access Bank).
000052 6AFA           01370         CLRF    PCLATH
Message[1301]: Using default destination of 0 (Access Bank).
000054 6AFB           01371         CLRF    PCLATU
000056 34??           01372         RLCF    r0x00, W
000058 36FA           01373         RLCF    PCLATH, F
00005A 34E8           01374         RLCF    WREG, W
00005C 36FA           01375         RLCF    PCLATH, F
gpasm-1.4.0 #1106 (Oct  6 2014)      main.asm   8-19-2015  19:58:20         PAGE 28


LOC    OBJECT CODE    LINE  SOURCE TEXT
  VALUE

00005E 0BFC           01376         ANDLW   0xfc
000060 0F??           01377         ADDLW   LOW(_00259_DS_)
Message[1301]: Using default destination of 0 (Access Bank).
000062 6EE5           01378         MOVWF   POSTDEC1
000064 0E??           01379         MOVLW   HIGH(_00259_DS_)
000066 22FA           01380         ADDWFC  PCLATH, F
000068 0E??           01381         MOVLW   UPPER(_00259_DS_)
00006A 22FB           01382         ADDWFC  PCLATU, F
00006C 50E4           01383         MOVF    PREINC1, W
Message[1301]: Using default destination of 0 (Access Bank).
00006E 6EF9           01384         MOVWF   PCL
000070                01385 _00259_DS_:
000070 EF?? F0??      01386         GOTO    _00215_DS_
000074 EF?? F0??      01387         GOTO    _00216_DS_
000078 EF?? F0??      01388         GOTO    _00221_DS_
00007C EF?? F0??      01389         GOTO    _00217_DS_
000080 EF?? F0??      01390         GOTO    _00219_DS_
000084 EF?? F0??      01391         GOTO    _00222_DS_
000088 EF?? F0??      01392         GOTO    _00223_DS_
00008C                01393 _00215_DS_:
                      01394 ;       .line   471; main.c     UART_putchar(GET_BOOT_VER);
00008C 0E10           01395         MOVLW   0x10
Message[1301]: Using default destination of 0 (Access Bank).
00008E 6EE5           01396         MOVWF   POSTDEC1
000090 EC?? F0??      01397         CALL    _UART_putchar
000094 52E6           01398         MOVF    POSTINC1, F
                      01399 ; #     MOVWF   r0x00
                      01400 ; #;#   MOVF    r0x02, W
                      01401 ; #;#   MOVWF   r0x02
                      01402 ; #;#   MOVF    r0x02, W
                      01403 ; #;#   MOVF    r0x01, W
                      01404 ; #;#   MOVF    r0x01, W
                      01405 ; #;#   MOVWF   r0x01
                      01406 ; #;#   MOVF    r0x01, W
                      01407 ; #;#   MOVF    r0x00, W
                      01408 ; #     MOVF    r0x00, W
                      01409 ; #     MOVWF   r0x00
                      01410 ; #     MOVWF   r0x00
                      01411 ;       .line   472; main.c     send_string_uart((u8 *)BOOT_VER_STRING);
000096 0E??           01412         MOVLW   UPPER(___str_0)
Message[1301]: Using default destination of 0 (Access Bank).
000098 6EE5           01413         MOVWF   POSTDEC1
00009A 0E??           01414         MOVLW   HIGH(___str_0)
Message[1301]: Using default destination of 0 (Access Bank).
00009C 6EE5           01415         MOVWF   POSTDEC1
00009E 0E??           01416         MOVLW   LOW(___str_0)
Message[1301]: Using default destination of 0 (Access Bank).
0000A0 6EE5           01417         MOVWF   POSTDEC1
0000A2 EC?? F0??      01418         CALL    _send_string_uart
0000A6 0E03           01419         MOVLW   0x03
0000A8 26E1           01420         ADDWF   FSR1L, F
                      01421 ;       .line   473; main.c     break;
0000AA D???           01422         BRA     _00232_DS_
gpasm-1.4.0 #1106 (Oct  6 2014)      main.asm   8-19-2015  19:58:20         PAGE 29


LOC    OBJECT CODE    LINE  SOURCE TEXT
  VALUE

0000AC                01423 _00216_DS_:
                      01424 ;       .line   476; main.c     UART_putchar(ACKNOWLEDGE);
0000AC 0E12           01425         MOVLW   0x12
Message[1301]: Using default destination of 0 (Access Bank).
0000AE 6EE5           01426         MOVWF   POSTDEC1
0000B0 EC?? F0??      01427         CALL    _UART_putchar
0000B4 52E6           01428         MOVF    POSTINC1, F
                      01429 ;       .line   478; main.c     break;
0000B6 D???           01430         BRA     _00232_DS_
0000B8                01431 _00217_DS_:
                      01432 ;       .line   481; main.c     for (adr = APP_ENTRY; adr < FLASH_SIZE; adr += FLASH_ERASE_BLOCK){
Message[1301]: Using default destination of 0 (Access Bank).
0000B8 6A??           01433         CLRF    r0x00
0000BA 0E10           01434         MOVLW   0x10
Message[1301]: Using default destination of 0 (Access Bank).
0000BC 6E??           01435         MOVWF   r0x01
Message[1301]: Using default destination of 0 (Access Bank).
0000BE 6A??           01436         CLRF    r0x02
Message[1301]: Using default destination of 0 (Access Bank).
0000C0 6A??           01437         CLRF    r0x03
0000C2                01438 _00228_DS_:
                      01439 ;       .line   482; main.c     erase_flash(adr);
0000C2 50??           01440         MOVF    r0x03, W
Message[1301]: Using default destination of 0 (Access Bank).
0000C4 6EE5           01441         MOVWF   POSTDEC1
0000C6 50??           01442         MOVF    r0x02, W
Message[1301]: Using default destination of 0 (Access Bank).
0000C8 6EE5           01443         MOVWF   POSTDEC1
0000CA 50??           01444         MOVF    r0x01, W
Message[1301]: Using default destination of 0 (Access Bank).
0000CC 6EE5           01445         MOVWF   POSTDEC1
0000CE 50??           01446         MOVF    r0x00, W
Message[1301]: Using default destination of 0 (Access Bank).
0000D0 6EE5           01447         MOVWF   POSTDEC1
0000D2 EC?? F0??      01448         CALL    _erase_flash
0000D6 0E04           01449         MOVLW   0x04
0000D8 26E1           01450         ADDWF   FSR1L, F
                      01451 ;       .line   481; main.c     for (adr = APP_ENTRY; adr < FLASH_SIZE; adr += FLASH_ERASE_BLOCK){
0000DA 0E40           01452         MOVLW   0x40
0000DC 26??           01453         ADDWF   r0x00, F
0000DE 0E00           01454         MOVLW   0x00
0000E0 22??           01455         ADDWFC  r0x01, F
0000E2 22??           01456         ADDWFC  r0x02, F
0000E4 22??           01457         ADDWFC  r0x03, F
0000E6 5C??           01458         SUBWF   r0x03, W
0000E8 E1??           01459         BNZ     _00260_DS_
0000EA 0E01           01460         MOVLW   0x01
0000EC 5C??           01461         SUBWF   r0x02, W
0000EE E1??           01462         BNZ     _00260_DS_
0000F0 0E00           01463         MOVLW   0x00
0000F2 5C??           01464         SUBWF   r0x01, W
0000F4 E1??           01465         BNZ     _00260_DS_
0000F6 0E00           01466         MOVLW   0x00
gpasm-1.4.0 #1106 (Oct  6 2014)      main.asm   8-19-2015  19:58:20         PAGE 30


LOC    OBJECT CODE    LINE  SOURCE TEXT
  VALUE

0000F8 5C??           01467         SUBWF   r0x00, W
0000FA                01468 _00260_DS_:
0000FA E3??           01469         BNC     _00228_DS_
                      01470 ;       .line   484; main.c     UART_putchar(ACKNOWLEDGE);
0000FC 0E12           01471         MOVLW   0x12
Message[1301]: Using default destination of 0 (Access Bank).
0000FE 6EE5           01472         MOVWF   POSTDEC1
000100 EC?? F0??      01473         CALL    _UART_putchar
000104 52E6           01474         MOVF    POSTINC1, F
                      01475 ;       .line   485; main.c     break;
000106 D???           01476         BRA     _00232_DS_
000108                01477 _00219_DS_:
                      01478 ;       .line   488; main.c     address = (((u32)UART_getchar(0x7FFF))<<24);
000108 0E7F           01479         MOVLW   0x7f
Message[1301]: Using default destination of 0 (Access Bank).
00010A 6EE5           01480         MOVWF   POSTDEC1
00010C 0EFF           01481         MOVLW   0xff
Message[1301]: Using default destination of 0 (Access Bank).
00010E 68E5           01482         SETF    POSTDEC1
000110 EC?? F0??      01483         CALL    _UART_getchar
000114 52E6           01484         MOVF    POSTINC1, F
000116 52E6           01485         MOVF    POSTINC1, F
Message[1301]: Using default destination of 0 (Access Bank).
000118 6E??           01486         MOVWF   r0x07
Message[1301]: Using default destination of 0 (Access Bank).
00011A 6A??           01487         CLRF    r0x04
Message[1301]: Using default destination of 0 (Access Bank).
00011C 6A??           01488         CLRF    r0x05
Message[1301]: Using default destination of 0 (Access Bank).
00011E 6A??           01489         CLRF    r0x06
                      01490 ;       .line   489; main.c     address |= (((u32)UART_getchar(0x7FFF))<<16);
000120 0E7F           01491         MOVLW   0x7f
Message[1301]: Using default destination of 0 (Access Bank).
000122 6EE5           01492         MOVWF   POSTDEC1
000124 0EFF           01493         MOVLW   0xff
Message[1301]: Using default destination of 0 (Access Bank).
000126 68E5           01494         SETF    POSTDEC1
000128 EC?? F0??      01495         CALL    _UART_getchar
00012C 52E6           01496         MOVF    POSTINC1, F
00012E 52E6           01497         MOVF    POSTINC1, F
Message[1301]: Using default destination of 0 (Access Bank).
000130 6A??           01498         CLRF    r0x0b
Message[1301]: Using default destination of 0 (Access Bank).
000132 6E??           01499         MOVWF   r0x0a
Message[1301]: Using default destination of 0 (Access Bank).
000134 6A??           01500         CLRF    r0x08
000136 50??           01501         MOVF    r0x08, W
000138 12??           01502         IORWF   r0x04, F
00013A 12??           01503         IORWF   r0x05, F
00013C 50??           01504         MOVF    r0x0a, W
00013E 12??           01505         IORWF   r0x06, F
000140 50??           01506         MOVF    r0x0b, W
000142 12??           01507         IORWF   r0x07, F
gpasm-1.4.0 #1106 (Oct  6 2014)      main.asm   8-19-2015  19:58:20         PAGE 31


LOC    OBJECT CODE    LINE  SOURCE TEXT
  VALUE

                      01508 ;       .line   490; main.c     address |= (((u32)UART_getchar(0x7FFF))<<8);
000144 0E7F           01509         MOVLW   0x7f
Message[1301]: Using default destination of 0 (Access Bank).
000146 6EE5           01510         MOVWF   POSTDEC1
000148 0EFF           01511         MOVLW   0xff
Message[1301]: Using default destination of 0 (Access Bank).
00014A 68E5           01512         SETF    POSTDEC1
00014C EC?? F0??      01513         CALL    _UART_getchar
000150 52E6           01514         MOVF    POSTINC1, F
000152 52E6           01515         MOVF    POSTINC1, F
Message[1301]: Using default destination of 0 (Access Bank).
000154 6A??           01516         CLRF    r0x0a
Message[1301]: Using default destination of 0 (Access Bank).
000156 6E??           01517         MOVWF   r0x09
Message[1301]: Using default destination of 0 (Access Bank).
000158 6A??           01518         CLRF    r0x08
00015A 50??           01519         MOVF    r0x08, W
00015C 12??           01520         IORWF   r0x04, F
00015E 50??           01521         MOVF    r0x09, W
000160 12??           01522         IORWF   r0x05, F
000162 50??           01523         MOVF    r0x0a, W
000164 12??           01524         IORWF   r0x06, F
000166 12??           01525         IORWF   r0x07, F
                      01526 ;       .line   491; main.c     address |= ((u32)UART_getchar(0x7FFF));
000168 0E7F           01527         MOVLW   0x7f
Message[1301]: Using default destination of 0 (Access Bank).
00016A 6EE5           01528         MOVWF   POSTDEC1
00016C 0EFF           01529         MOVLW   0xff
Message[1301]: Using default destination of 0 (Access Bank).
00016E 68E5           01530         SETF    POSTDEC1
000170 EC?? F0??      01531         CALL    _UART_getchar
000174 52E6           01532         MOVF    POSTINC1, F
000176 52E6           01533         MOVF    POSTINC1, F
Message[1301]: Using default destination of 0 (Access Bank).
000178 6A??           01534         CLRF    r0x01
Message[1301]: Using default destination of 0 (Access Bank).
00017A 6A??           01535         CLRF    r0x02
Message[1301]: Using default destination of 0 (Access Bank).
00017C 6A??           01536         CLRF    r0x03
00017E 12??           01537         IORWF   r0x04, F
000180 50??           01538         MOVF    r0x01, W
000182 12??           01539         IORWF   r0x05, F
000184 12??           01540         IORWF   r0x06, F
000186 12??           01541         IORWF   r0x07, F
                      01542 ;       .line   492; main.c     for (adr = 0; adr < PAGE_SIZE; adr++){
Message[1301]: Using default destination of 0 (Access Bank).
000188 6A??           01543         CLRF    r0x00
00018A                01544 _00230_DS_:
                      01545 ;       .line   493; main.c     gbuffer[adr] = UART_getchar(0x7FFF);
00018A 0E??           01546         MOVLW   LOW(_gbuffer)
00018C 24??           01547         ADDWF   r0x00, W
Message[1301]: Using default destination of 0 (Access Bank).
00018E 6E??           01548         MOVWF   r0x08
gpasm-1.4.0 #1106 (Oct  6 2014)      main.asm   8-19-2015  19:58:20         PAGE 32


LOC    OBJECT CODE    LINE  SOURCE TEXT
  VALUE

000190 0E??           01549         MOVLW   HIGH(_gbuffer)
000192 20??           01550         ADDWFC  r0x01, W
Message[1301]: Using default destination of 0 (Access Bank).
000194 6E??           01551         MOVWF   r0x09
000196 0E7F           01552         MOVLW   0x7f
Message[1301]: Using default destination of 0 (Access Bank).
000198 6EE5           01553         MOVWF   POSTDEC1
00019A 0EFF           01554         MOVLW   0xff
Message[1301]: Using default destination of 0 (Access Bank).
00019C 68E5           01555         SETF    POSTDEC1
00019E EC?? F0??      01556         CALL    _UART_getchar
Message[1301]: Using default destination of 0 (Access Bank).
0001A2 6E??           01557         MOVWF   r0x0a
0001A4 52E6           01558         MOVF    POSTINC1, F
0001A6 52E6           01559         MOVF    POSTINC1, F
0001A8 C??? F???      01560         MOVFF   r0x08, FSR0L
0001AC C??? F???      01561         MOVFF   r0x09, FSR0H
0001B0 C??? F???      01562         MOVFF   r0x0a, INDF0
                      01563 ;       .line   492; main.c     for (adr = 0; adr < PAGE_SIZE; adr++){
0001B4 2A??           01564         INCF    r0x00, F
0001B6 E3??           01565         BNC     _00264_DS_
0001B8 2A??           01566         INCF    r0x01, F
0001BA E3??           01567         BNC     _00264_DS_
0001BC 4A??           01568         INFSNZ  r0x02, F
0001BE 2A??           01569         INCF    r0x03, F
0001C0                01570 _00264_DS_:
0001C0 0E00           01571         MOVLW   0x00
0001C2 5C??           01572         SUBWF   r0x03, W
0001C4 E1??           01573         BNZ     _00265_DS_
0001C6 0E00           01574         MOVLW   0x00
0001C8 5C??           01575         SUBWF   r0x02, W
0001CA E1??           01576         BNZ     _00265_DS_
0001CC 0E00           01577         MOVLW   0x00
0001CE 5C??           01578         SUBWF   r0x01, W
0001D0 E1??           01579         BNZ     _00265_DS_
0001D2 0E40           01580         MOVLW   0x40
0001D4 5C??           01581         SUBWF   r0x00, W
0001D6                01582 _00265_DS_:
0001D6 E3??           01583         BNC     _00230_DS_
                      01584 ;       .line   495; main.c     erase_flash(address);
0001D8 50??           01585         MOVF    r0x07, W
Message[1301]: Using default destination of 0 (Access Bank).
0001DA 6EE5           01586         MOVWF   POSTDEC1
0001DC 50??           01587         MOVF    r0x06, W
Message[1301]: Using default destination of 0 (Access Bank).
0001DE 6EE5           01588         MOVWF   POSTDEC1
0001E0 50??           01589         MOVF    r0x05, W
Message[1301]: Using default destination of 0 (Access Bank).
0001E2 6EE5           01590         MOVWF   POSTDEC1
0001E4 50??           01591         MOVF    r0x04, W
Message[1301]: Using default destination of 0 (Access Bank).
0001E6 6EE5           01592         MOVWF   POSTDEC1
0001E8 EC?? F0??      01593         CALL    _erase_flash
gpasm-1.4.0 #1106 (Oct  6 2014)      main.asm   8-19-2015  19:58:20         PAGE 33


LOC    OBJECT CODE    LINE  SOURCE TEXT
  VALUE

0001EC 0E04           01594         MOVLW   0x04
0001EE 26E1           01595         ADDWF   FSR1L, F
                      01596 ;       .line   496; main.c     write_flash(address, gbuffer, PAGE_SIZE);
0001F0 0E40           01597         MOVLW   0x40
Message[1301]: Using default destination of 0 (Access Bank).
0001F2 6EE5           01598         MOVWF   POSTDEC1
0001F4 0E80           01599         MOVLW   0x80
Message[1301]: Using default destination of 0 (Access Bank).
0001F6 6EE5           01600         MOVWF   POSTDEC1
0001F8 0E??           01601         MOVLW   HIGH(_gbuffer)
Message[1301]: Using default destination of 0 (Access Bank).
0001FA 6EE5           01602         MOVWF   POSTDEC1
0001FC 0E??           01603         MOVLW   LOW(_gbuffer)
Message[1301]: Using default destination of 0 (Access Bank).
0001FE 6EE5           01604         MOVWF   POSTDEC1
000200 50??           01605         MOVF    r0x07, W
Message[1301]: Using default destination of 0 (Access Bank).
000202 6EE5           01606         MOVWF   POSTDEC1
000204 50??           01607         MOVF    r0x06, W
Message[1301]: Using default destination of 0 (Access Bank).
000206 6EE5           01608         MOVWF   POSTDEC1
000208 50??           01609         MOVF    r0x05, W
Message[1301]: Using default destination of 0 (Access Bank).
00020A 6EE5           01610         MOVWF   POSTDEC1
00020C 50??           01611         MOVF    r0x04, W
Message[1301]: Using default destination of 0 (Access Bank).
00020E 6EE5           01612         MOVWF   POSTDEC1
000210 EC?? F0??      01613         CALL    _write_flash
000214 0E08           01614         MOVLW   0x08
000216 26E1           01615         ADDWF   FSR1L, F
                      01616 ;       .line   497; main.c     UART_putchar(ACKNOWLEDGE);
000218 0E12           01617         MOVLW   0x12
Message[1301]: Using default destination of 0 (Access Bank).
00021A 6EE5           01618         MOVWF   POSTDEC1
00021C EC?? F0??      01619         CALL    _UART_putchar
000220 52E6           01620         MOVF    POSTINC1, F
                      01621 ;       .line   498; main.c     break;
000222 D???           01622         BRA     _00232_DS_
000224                01623 _00221_DS_:
                      01624 ;       .line   502; main.c     UART_putchar(PAGE_SIZE_REQUEST);
000224 0E12           01625         MOVLW   0x12
Message[1301]: Using default destination of 0 (Access Bank).
000226 6EE5           01626         MOVWF   POSTDEC1
000228 EC?? F0??      01627         CALL    _UART_putchar
00022C 52E6           01628         MOVF    POSTINC1, F
                      01629 ;       .line   504; main.c     UART_putchar((u8)((PAGE_SIZE_VALUE&0xFF00)>>8));
00022E 0E00           01630         MOVLW   0x00
Message[1301]: Using default destination of 0 (Access Bank).
000230 6AE5           01631         CLRF    POSTDEC1
000232 EC?? F0??      01632         CALL    _UART_putchar
000236 52E6           01633         MOVF    POSTINC1, F
                      01634 ;       .line   506; main.c     UART_putchar((u8)(PAGE_SIZE_VALUE&0x00FF));
000238 0E40           01635         MOVLW   0x40
gpasm-1.4.0 #1106 (Oct  6 2014)      main.asm   8-19-2015  19:58:20         PAGE 34


LOC    OBJECT CODE    LINE  SOURCE TEXT
  VALUE

Message[1301]: Using default destination of 0 (Access Bank).
00023A 6EE5           01636         MOVWF   POSTDEC1
00023C EC?? F0??      01637         CALL    _UART_putchar
000240 52E6           01638         MOVF    POSTINC1, F
                      01639 ;       .line   507; main.c     UART_putchar(crc);
000242 0E52           01640         MOVLW   0x52
Message[1301]: Using default destination of 0 (Access Bank).
000244 6EE5           01641         MOVWF   POSTDEC1
000246 EC?? F0??      01642         CALL    _UART_putchar
00024A 52E6           01643         MOVF    POSTINC1, F
                      01644 ;       .line   508; main.c     break;
00024C D???           01645         BRA     _00232_DS_
00024E                01646 _00222_DS_:
                      01647 ;       .line   512; main.c     UART_putchar(ADDRESS_ALIGMENT);
00024E 0E15           01648         MOVLW   0x15
Message[1301]: Using default destination of 0 (Access Bank).
000250 6EE5           01649         MOVWF   POSTDEC1
000252 EC?? F0??      01650         CALL    _UART_putchar
000256 52E6           01651         MOVF    POSTINC1, F
                      01652 ;       .line   514; main.c     UART_putchar((u8)((ADDRESS_ALIGMENT_VALUE&0xFF00)>>8));
000258 0E00           01653         MOVLW   0x00
Message[1301]: Using default destination of 0 (Access Bank).
00025A 6AE5           01654         CLRF    POSTDEC1
00025C EC?? F0??      01655         CALL    _UART_putchar
000260 52E6           01656         MOVF    POSTINC1, F
                      01657 ;       .line   516; main.c     UART_putchar((u8)(ADDRESS_ALIGMENT_VALUE&0x00FF));
000262 0E3F           01658         MOVLW   0x3f
Message[1301]: Using default destination of 0 (Access Bank).
000264 6EE5           01659         MOVWF   POSTDEC1
000266 EC?? F0??      01660         CALL    _UART_putchar
00026A 52E6           01661         MOVF    POSTINC1, F
                      01662 ;       .line   517; main.c     UART_putchar(crc);
00026C 0E54           01663         MOVLW   0x54
Message[1301]: Using default destination of 0 (Access Bank).
00026E 6EE5           01664         MOVWF   POSTDEC1
000270 EC?? F0??      01665         CALL    _UART_putchar
000274 52E6           01666         MOVF    POSTINC1, F
                      01667 ;       .line   518; main.c     break;
000276 D???           01668         BRA     _00232_DS_
000278                01669 _00223_DS_:
                      01670 ;       .line   521; main.c     UART_putchar(ACKNOWLEDGE);
000278 0E12           01671         MOVLW   0x12
Message[1301]: Using default destination of 0 (Access Bank).
00027A 6EE5           01672         MOVWF   POSTDEC1
00027C EC?? F0??      01673         CALL    _UART_putchar
000280 52E6           01674         MOVF    POSTINC1, F
                      01675 ;       .line   522; main.c     jump_to_app(); /* Jump to user application code */
000282 EC?? F0??      01676         CALL    _jump_to_app
                      01677 ;       .line   523; main.c     break;
000286 D???           01678         BRA     _00232_DS_
000288                01679 _00224_DS_:
000288 ????           01680         BANKSEL _timeout
                      01681 ;       .line   526; main.c     timeout++;
gpasm-1.4.0 #1106 (Oct  6 2014)      main.asm   8-19-2015  19:58:20         PAGE 35


LOC    OBJECT CODE    LINE  SOURCE TEXT
  VALUE

00028A 2B??           01682         INCF    _timeout, F, B
00028C E3??           01683         BNC     _00266_DS_
                      01684 ; removed redundant BANKSEL
00028E 2B??           01685         INCF    (_timeout + 1), F, B
000290 E3??           01686         BNC     _00266_DS_
                      01687 ; removed redundant BANKSEL
000292 3F??           01688         INCFSZ  (_timeout + 2), F, B
000294 D???           01689         BRA     _10321_DS_
                      01690 ; removed redundant BANKSEL
000296 2B??           01691         INCF    (_timeout + 3), F, B
000298                01692 _10321_DS_:
000298                01693 _00266_DS_:
000298 ????           01694         BANKSEL _timeout
                      01695 ;       .line   527; main.c     if(timeout == TIMEOUT){
00029A 51??           01696         MOVF    _timeout, W, B
00029C 0AFF           01697         XORLW   0xff
00029E E1??           01698         BNZ     _00267_DS_
                      01699 ; removed redundant BANKSEL
0002A0 51??           01700         MOVF    (_timeout + 1), W, B
0002A2 0A1F           01701         XORLW   0x1f
0002A4 E1??           01702         BNZ     _00267_DS_
                      01703 ; removed redundant BANKSEL
0002A6 51??           01704         MOVF    (_timeout + 2), W, B
0002A8 E1??           01705         BNZ     _00267_DS_
                      01706 ; removed redundant BANKSEL
0002AA 51??           01707         MOVF    (_timeout + 3), W, B
0002AC E0??           01708         BZ      _00268_DS_
0002AE                01709 _00267_DS_:
0002AE D???           01710         BRA     _00232_DS_
0002B0                01711 _00268_DS_:
                      01712 ;       .line   528; main.c     jump_to_app(); /* Jump to user application code */
0002B0 EC?? F0??      01713         CALL    _jump_to_app
0002B4                01714 _00232_DS_:
                      01715 ;       .line   532; main.c     }
0002B4 CFE4 F000      01716         MOVFF   PREINC1, r0x0b
0002B8 CFE4 F000      01717         MOVFF   PREINC1, r0x0a
0002BC CFE4 F000      01718         MOVFF   PREINC1, r0x09
0002C0 CFE4 F000      01719         MOVFF   PREINC1, r0x08
0002C4 CFE4 F000      01720         MOVFF   PREINC1, r0x07
0002C8 CFE4 F000      01721         MOVFF   PREINC1, r0x06
0002CC CFE4 F000      01722         MOVFF   PREINC1, r0x05
0002D0 CFE4 F000      01723         MOVFF   PREINC1, r0x04
0002D4 CFE4 F000      01724         MOVFF   PREINC1, r0x03
0002D8 CFE4 F000      01725         MOVFF   PREINC1, r0x02
0002DC CFE4 F000      01726         MOVFF   PREINC1, r0x01
0002E0 CFE4 F000      01727         MOVFF   PREINC1, r0x00
0002E4 CFE4 FFD9      01728         MOVFF   PREINC1, FSR2L
0002E8 0012           01729         RETURN  
                      01730 
                      01731 ; ; Starting pCode block
                      01732 S_main__send_string_uart        code
000000                01733 _send_string_uart:
                      01734 ;       .line   447; main.c     static void send_string_uart(u8 *buf)
gpasm-1.4.0 #1106 (Oct  6 2014)      main.asm   8-19-2015  19:58:20         PAGE 36


LOC    OBJECT CODE    LINE  SOURCE TEXT
  VALUE

000000 CFD9 FFE5      01735         MOVFF   FSR2L, POSTDEC1
000004 CFE1 FFD9      01736         MOVFF   FSR1L, FSR2L
000008 C??? F???      01737         MOVFF   r0x00, POSTDEC1
00000C C??? F???      01738         MOVFF   r0x01, POSTDEC1
000010 C??? F???      01739         MOVFF   r0x02, POSTDEC1
000014 C??? F???      01740         MOVFF   r0x03, POSTDEC1
000018 C??? F???      01741         MOVFF   r0x04, POSTDEC1
00001C C??? F???      01742         MOVFF   r0x05, POSTDEC1
000020 C??? F???      01743         MOVFF   r0x06, POSTDEC1
000024 0E02           01744         MOVLW   0x02
000026 CFDB F000      01745         MOVFF   PLUSW2, r0x00
00002A 0E03           01746         MOVLW   0x03
00002C CFDB F000      01747         MOVFF   PLUSW2, r0x01
000030 0E04           01748         MOVLW   0x04
000032 CFDB F000      01749         MOVFF   PLUSW2, r0x02
                      01750 ;       .line   451; main.c     do{
Message[1301]: Using default destination of 0 (Access Bank).
000036 6A??           01751         CLRF    r0x03
000038                01752 _00207_DS_:
                      01753 ;       .line   452; main.c     if(buf[i] != '\0'){
000038 50??           01754         MOVF    r0x03, W
00003A 24??           01755         ADDWF   r0x00, W
Message[1301]: Using default destination of 0 (Access Bank).
00003C 6E??           01756         MOVWF   r0x04
Message[1301]: Using default destination of 0 (Access Bank).
00003E 6AE8           01757         CLRF    WREG
000040 20??           01758         ADDWFC  r0x01, W
Message[1301]: Using default destination of 0 (Access Bank).
000042 6E??           01759         MOVWF   r0x05
Message[1301]: Using default destination of 0 (Access Bank).
000044 6AE8           01760         CLRF    WREG
000046 20??           01761         ADDWFC  r0x02, W
000048 C??? F???      01762         MOVFF   r0x04, FSR0L
00004C C??? F???      01763         MOVFF   r0x05, PRODL
000050 EC?? F0??      01764         CALL    __gptrget1
Message[1301]: Using default destination of 0 (Access Bank).
000054 6E??           01765         MOVWF   r0x04
000056 50??           01766         MOVF    r0x04, W
000058 E0??           01767         BZ      _00208_DS_
                      01768 ;       .line   453; main.c     UART_putchar(buf[i]);
00005A 50??           01769         MOVF    r0x04, W
Message[1301]: Using default destination of 0 (Access Bank).
00005C 6EE5           01770         MOVWF   POSTDEC1
00005E EC?? F0??      01771         CALL    _UART_putchar
000062 52E6           01772         MOVF    POSTINC1, F
000064                01773 _00208_DS_:
                      01774 ;       .line   455; main.c     }while(buf[i++] != '\0');
000064 C??? F???      01775         MOVFF   r0x03, r0x04
000068 2A??           01776         INCF    r0x03, F
Message[1301]: Using default destination of 0 (Access Bank).
00006A 6A??           01777         CLRF    r0x05
Message[1301]: Using default destination of 0 (Access Bank).
00006C 6A??           01778         CLRF    r0x06
gpasm-1.4.0 #1106 (Oct  6 2014)      main.asm   8-19-2015  19:58:20         PAGE 37


LOC    OBJECT CODE    LINE  SOURCE TEXT
  VALUE

00006E 50??           01779         MOVF    r0x00, W
000070 26??           01780         ADDWF   r0x04, F
000072 50??           01781         MOVF    r0x01, W
000074 22??           01782         ADDWFC  r0x05, F
000076 50??           01783         MOVF    r0x02, W
000078 22??           01784         ADDWFC  r0x06, F
00007A C??? F???      01785         MOVFF   r0x04, FSR0L
00007E C??? F???      01786         MOVFF   r0x05, PRODL
000082 50??           01787         MOVF    r0x06, W
000084 EC?? F0??      01788         CALL    __gptrget1
Message[1301]: Using default destination of 0 (Access Bank).
000088 6E??           01789         MOVWF   r0x04
00008A 50??           01790         MOVF    r0x04, W
00008C E1??           01791         BNZ     _00207_DS_
00008E CFE4 F000      01792         MOVFF   PREINC1, r0x06
000092 CFE4 F000      01793         MOVFF   PREINC1, r0x05
000096 CFE4 F000      01794         MOVFF   PREINC1, r0x04
00009A CFE4 F000      01795         MOVFF   PREINC1, r0x03
00009E CFE4 F000      01796         MOVFF   PREINC1, r0x02
0000A2 CFE4 F000      01797         MOVFF   PREINC1, r0x01
0000A6 CFE4 F000      01798         MOVFF   PREINC1, r0x00
0000AA CFE4 FFD9      01799         MOVFF   PREINC1, FSR2L
0000AE 0012           01800         RETURN  
                      01801 
                      01802 ; ; Starting pCode block
                      01803 S_main__UART_getchar    code
000000                01804 _UART_getchar:
                      01805 ;       .line   424; main.c     static u8 UART_getchar(u16 tout_val)
000000 CFD9 FFE5      01806         MOVFF   FSR2L, POSTDEC1
000004 CFE1 FFD9      01807         MOVFF   FSR1L, FSR2L
000008 C??? F???      01808         MOVFF   r0x00, POSTDEC1
00000C C??? F???      01809         MOVFF   r0x01, POSTDEC1
000010 C??? F???      01810         MOVFF   r0x02, POSTDEC1
000014 C??? F???      01811         MOVFF   r0x03, POSTDEC1
000018 0E02           01812         MOVLW   0x02
00001A CFDB F000      01813         MOVFF   PLUSW2, r0x00
00001E 0E03           01814         MOVLW   0x03
000020 CFDB F000      01815         MOVFF   PLUSW2, r0x01
                      01816 ;       .line   428; main.c     while(!PIR1bits.RCIF){
Message[1301]: Using default destination of 0 (Access Bank).
000024 6A??           01817         CLRF    r0x02
Message[1301]: Using default destination of 0 (Access Bank).
000026 6A??           01818         CLRF    r0x03
000028                01819 _00175_DS_:
000028 BA??           01820         BTFSC   _PIR1bits, 5
00002A D???           01821         BRA     _00177_DS_
                      01822 ;       .line   429; main.c     if(tout == tout_val){
00002C 50??           01823         MOVF    r0x02, W
00002E 18??           01824         XORWF   r0x00, W
000030 E1??           01825         BNZ     _00195_DS_
000032 50??           01826         MOVF    r0x03, W
000034 18??           01827         XORWF   r0x01, W
000036 E0??           01828         BZ      _00196_DS_
gpasm-1.4.0 #1106 (Oct  6 2014)      main.asm   8-19-2015  19:58:20         PAGE 38


LOC    OBJECT CODE    LINE  SOURCE TEXT
  VALUE

000038                01829 _00195_DS_:
000038 D???           01830         BRA     _00173_DS_
00003A                01831 _00196_DS_:
                      01832 ;       .line   430; main.c     return(0);
Message[1301]: Using default destination of 0 (Access Bank).
00003A 6AE8           01833         CLRF    WREG
00003C D???           01834         BRA     _00181_DS_
00003E                01835 _00173_DS_:
                      01836 ;       .line   433; main.c     tout++;
00003E 4A??           01837         INFSNZ  r0x02, F
000040 2A??           01838         INCF    r0x03, F
000042 D???           01839         BRA     _00175_DS_
000044                01840 _00177_DS_:
000044 ????           01841         BANKSEL _timeout
                      01842 ;       .line   436; main.c     timeout = 0x00000000;
000046 6B??           01843         CLRF    _timeout, B
                      01844 ; removed redundant BANKSEL
000048 6B??           01845         CLRF    (_timeout + 1), B
                      01846 ; removed redundant BANKSEL
00004A 6B??           01847         CLRF    (_timeout + 2), B
                      01848 ; removed redundant BANKSEL
00004C 6B??           01849         CLRF    (_timeout + 3), B
                      01850 ;       .line   437; main.c     if( (RCSTAbits.FERR == 1) || (RCSTAbits.OERR == 1) ){
Message[1301]: Using default destination of 0 (Access Bank).
00004E 6A??           01851         CLRF    r0x00
000050 B4??           01852         BTFSC   _RCSTAbits, 2
000052 2A??           01853         INCF    r0x00, F
000054 50??           01854         MOVF    r0x00, W
000056 0A01           01855         XORLW   0x01
000058 E0??           01856         BZ      _00178_DS_
Message[1301]: Using default destination of 0 (Access Bank).
00005A 6A??           01857         CLRF    r0x00
00005C B2??           01858         BTFSC   _RCSTAbits, 1
00005E 2A??           01859         INCF    r0x00, F
000060 50??           01860         MOVF    r0x00, W
000062 0A01           01861         XORLW   0x01
000064 E1??           01862         BNZ     _00179_DS_
000066                01863 _00178_DS_:
                      01864 ;       .line   438; main.c     RCSTAbits.CREN = 0; /* Clear an error */
000066 98??           01865         BCF     _RCSTAbits, 4
                      01866 ;       .line   439; main.c     RCSTAbits.CREN = 1; /* Start continous receiving again */
000068 88??           01867         BSF     _RCSTAbits, 4
00006A                01868 _00179_DS_:
                      01869 ;       .line   441; main.c     return((u8)RCREG1);
00006A 50??           01870         MOVF    _RCREG1, W
00006C                01871 _00181_DS_:
00006C CFE4 F000      01872         MOVFF   PREINC1, r0x03
000070 CFE4 F000      01873         MOVFF   PREINC1, r0x02
000074 CFE4 F000      01874         MOVFF   PREINC1, r0x01
000078 CFE4 F000      01875         MOVFF   PREINC1, r0x00
00007C CFE4 FFD9      01876         MOVFF   PREINC1, FSR2L
000080 0012           01877         RETURN  
                      01878 
gpasm-1.4.0 #1106 (Oct  6 2014)      main.asm   8-19-2015  19:58:20         PAGE 39


LOC    OBJECT CODE    LINE  SOURCE TEXT
  VALUE

                      01879 ; ; Starting pCode block
                      01880 S_main__UART_putchar    code
000000                01881 _UART_putchar:
                      01882 ;       .line   412; main.c     static void UART_putchar(u8 outchar)
000000 CFD9 FFE5      01883         MOVFF   FSR2L, POSTDEC1
000004 CFE1 FFD9      01884         MOVFF   FSR1L, FSR2L
000008 C??? F???      01885         MOVFF   r0x00, POSTDEC1
00000C 0E02           01886         MOVLW   0x02
00000E CFDB F000      01887         MOVFF   PLUSW2, r0x00
000012                01888 _00161_DS_:
                      01889 ;       .line   414; main.c     while(!TXSTA1bits.TRMT);
000012 A2??           01890         BTFSS   _TXSTA1bits, 1
000014 D???           01891         BRA     _00161_DS_
                      01892 ;       .line   416; main.c     TXREG1 = outchar;
000016 C??? F???      01893         MOVFF   r0x00, _TXREG1
00001A                01894 _00164_DS_:
                      01895 ;       .line   418; main.c     while(!TXSTA1bits.TRMT);
00001A A2??           01896         BTFSS   _TXSTA1bits, 1
00001C D???           01897         BRA     _00164_DS_
00001E CFE4 F000      01898         MOVFF   PREINC1, r0x00
000022 CFE4 FFD9      01899         MOVFF   PREINC1, FSR2L
000026 0012           01900         RETURN  
                      01901 
                      01902 ; ; Starting pCode block
                      01903 S_main__UART_init       code
000000                01904 _UART_init:
                      01905 ;       .line   387; main.c     TRISCbits.TRISC6 = 0; /* TX pin set as output */
000000 9C??           01906         BCF     _TRISCbits, 6
                      01907 ;       .line   388; main.c     TRISCbits.TRISC7 = 1; /* RX pin set as input */
000002 8E??           01908         BSF     _TRISCbits, 7
                      01909 ;       .line   394; main.c     TXSTAbits.SYNC = 0;
000004 98??           01910         BCF     _TXSTAbits, 4
                      01911 ;       .line   395; main.c     TXSTAbits.BRGH = 0;
000006 94??           01912         BCF     _TXSTAbits, 2
                      01913 ;       .line   396; main.c     BAUDCON1bits.BRG16 = 0;
000008 96??           01914         BCF     _BAUDCON1bits, 3
                      01915 ;       .line   397; main.c     SPBRG = 103;
00000A 0E67           01916         MOVLW   0x67
Message[1301]: Using default destination of 0 (Access Bank).
00000C 6E??           01917         MOVWF   _SPBRG
                      01918 ;       .line   400; main.c     TXSTAbits.TXEN = 1;
00000E 8A??           01919         BSF     _TXSTAbits, 5
                      01920 ;       .line   403; main.c     RCSTAbits.SPEN = 1;
000010 8E??           01921         BSF     _RCSTAbits, 7
                      01922 ;       .line   406; main.c     RCSTAbits.CREN = 1;
000012 88??           01923         BSF     _RCSTAbits, 4
000014 0012           01924         RETURN  
                      01925 
                      01926 ; ; Starting pCode block
000016                01927 ___str_0:
000016 6F42 746F 315F 01928         DB      0x42, 0x6f, 0x6f, 0x74, 0x5f, 0x31, 0x2e, 0x30, 0x2e, 0x61, 0x00
       302E 612E 0000 
                      01929 
gpasm-1.4.0 #1106 (Oct  6 2014)      main.asm   8-19-2015  19:58:20         PAGE 40


LOC    OBJECT CODE    LINE  SOURCE TEXT
  VALUE

                      01930 
                      01931 ; Statistics:
                      01932 ; code size:     1828 (0x0724) bytes ( 1.39%)
                      01933 ;                 914 (0x0392) words
                      01934 ; udata size:     319 (0x013f) bytes ( 9.40%)
                      01935 ; access size:     12 (0x000c) bytes
                      01936 
                      01937 
                      01938         end
gpasm-1.4.0 #1106 (Oct  6 2014)      main.asm   8-19-2015  19:58:20         PAGE 41


SYMBOL TABLE
  LABEL                             VALUE

FSR0H                             00000FEA
FSR0L                             00000FE9
FSR1L                             00000FE1
FSR2L                             00000FD9
INDF0                             00000FEF
PCL                               00000FF9
PCLATH                            00000FFA
PCLATU                            00000FFB
PLUSW2                            00000FDB
POSTDEC1                          00000FE5
POSTINC1                          00000FE6
PREINC1                           00000FE4
PRODL                             00000FF3
STATUS                            00000FD8
WREG                              00000FE8
_00107_DS_                        000000C6
_00110_DS_                        000000A6
_00113_DS_                        00000080
_00114_DS_                        000000D2
_00116_DS_                        0000005C
_00118_DS_                        00000018
_00141_DS_                        0000003A
_00142_DS_                        00000050
_00143_DS_                        0000006E
_00144_DS_                        00000070
_00145_DS_                        0000007E
_00146_DS_                        00000094
_00147_DS_                        00000096
_00148_DS_                        000000A4
_00149_DS_                        000000BA
_00150_DS_                        000000BC
_00151_DS_                        000000D2
_00161_DS_                        00000012
_00164_DS_                        0000001A
_00173_DS_                        0000003E
_00175_DS_                        00000028
_00177_DS_                        00000044
_00178_DS_                        00000066
_00179_DS_                        0000006A
_00181_DS_                        0000006C
_00195_DS_                        00000038
_00196_DS_                        0000003A
_00207_DS_                        00000038
_00208_DS_                        00000064
_00215_DS_                        0000008C
_00216_DS_                        000000AC
_00217_DS_                        000000B8
_00219_DS_                        00000108
_00221_DS_                        00000224
_00222_DS_                        0000024E
_00223_DS_                        00000278
_00224_DS_                        00000288
_00228_DS_                        000000C2
gpasm-1.4.0 #1106 (Oct  6 2014)      main.asm   8-19-2015  19:58:20         PAGE 42


SYMBOL TABLE
  LABEL                             VALUE 

_00230_DS_                        0000018A
_00232_DS_                        000002B4
_00259_DS_                        00000070
_00260_DS_                        000000FA
_00264_DS_                        000001C0
_00265_DS_                        000001D6
_00266_DS_                        00000298
_00267_DS_                        000002AE
_00268_DS_                        000002B0
_00278_DS_                        00000050
_00286_DS_                        000000F4
_00287_DS_                        00000108
_00291_DS_                        000000AC
_00311_DS_                        000000C4
_10321_DS_                        00000298
_ADCON0                           00000000
_ADCON0bits                       00000000
_ADCON1                           00000000
_ADCON1bits                       00000000
_ADCON2                           00000000
_ADCON2bits                       00000000
_ADRES                            00000000
_ADRESH                           00000000
_ADRESL                           00000000
_ANCON0                           00000000
_ANCON0bits                       00000000
_ANCON1                           00000000
_ANCON1bits                       00000000
_B0CON                            00000000
_B0CONbits                        00000000
_B0D0                             00000000
_B0D0bits                         00000000
_B0D1                             00000000
_B0D1bits                         00000000
_B0D2                             00000000
_B0D2bits                         00000000
_B0D3                             00000000
_B0D3bits                         00000000
_B0D4                             00000000
_B0D4bits                         00000000
_B0D5                             00000000
_B0D5bits                         00000000
_B0D6                             00000000
_B0D6bits                         00000000
_B0D7                             00000000
_B0D7bits                         00000000
_B0DLC                            00000000
_B0DLCbits                        00000000
_B0EIDH                           00000000
_B0EIDHbits                       00000000
_B0EIDL                           00000000
_B0EIDLbits                       00000000
_B0SIDH                           00000000
gpasm-1.4.0 #1106 (Oct  6 2014)      main.asm   8-19-2015  19:58:20         PAGE 43


SYMBOL TABLE
  LABEL                             VALUE 

_B0SIDHbits                       00000000
_B0SIDL                           00000000
_B0SIDLbits                       00000000
_B1CON                            00000000
_B1CONbits                        00000000
_B1D0                             00000000
_B1D0bits                         00000000
_B1D1                             00000000
_B1D1bits                         00000000
_B1D2                             00000000
_B1D2bits                         00000000
_B1D3                             00000000
_B1D3bits                         00000000
_B1D4                             00000000
_B1D4bits                         00000000
_B1D5                             00000000
_B1D5bits                         00000000
_B1D6                             00000000
_B1D6bits                         00000000
_B1D7                             00000000
_B1D7bits                         00000000
_B1DLC                            00000000
_B1DLCbits                        00000000
_B1EIDH                           00000000
_B1EIDHbits                       00000000
_B1EIDL                           00000000
_B1EIDLbits                       00000000
_B1SIDH                           00000000
_B1SIDHbits                       00000000
_B1SIDL                           00000000
_B1SIDLbits                       00000000
_B2CON                            00000000
_B2CONbits                        00000000
_B2D0                             00000000
_B2D0bits                         00000000
_B2D1                             00000000
_B2D1bits                         00000000
_B2D2                             00000000
_B2D2bits                         00000000
_B2D3                             00000000
_B2D3bits                         00000000
_B2D4                             00000000
_B2D4bits                         00000000
_B2D5                             00000000
_B2D5bits                         00000000
_B2D6                             00000000
_B2D6bits                         00000000
_B2D7                             00000000
_B2D7bits                         00000000
_B2DLC                            00000000
_B2DLCbits                        00000000
_B2EIDH                           00000000
_B2EIDHbits                       00000000
gpasm-1.4.0 #1106 (Oct  6 2014)      main.asm   8-19-2015  19:58:20         PAGE 44


SYMBOL TABLE
  LABEL                             VALUE 

_B2EIDL                           00000000
_B2EIDLbits                       00000000
_B2SIDH                           00000000
_B2SIDHbits                       00000000
_B2SIDL                           00000000
_B2SIDLbits                       00000000
_B3CON                            00000000
_B3CONbits                        00000000
_B3D0                             00000000
_B3D0bits                         00000000
_B3D1                             00000000
_B3D1bits                         00000000
_B3D2                             00000000
_B3D2bits                         00000000
_B3D3                             00000000
_B3D3bits                         00000000
_B3D4                             00000000
_B3D4bits                         00000000
_B3D5                             00000000
_B3D5bits                         00000000
_B3D6                             00000000
_B3D6bits                         00000000
_B3D7                             00000000
_B3D7bits                         00000000
_B3DLC                            00000000
_B3DLCbits                        00000000
_B3EIDH                           00000000
_B3EIDHbits                       00000000
_B3EIDL                           00000000
_B3EIDLbits                       00000000
_B3SIDH                           00000000
_B3SIDHbits                       00000000
_B3SIDL                           00000000
_B3SIDLbits                       00000000
_B4CON                            00000000
_B4CONbits                        00000000
_B4D0                             00000000
_B4D0bits                         00000000
_B4D1                             00000000
_B4D1bits                         00000000
_B4D2                             00000000
_B4D2bits                         00000000
_B4D3                             00000000
_B4D3bits                         00000000
_B4D4                             00000000
_B4D4bits                         00000000
_B4D5                             00000000
_B4D5bits                         00000000
_B4D6                             00000000
_B4D6bits                         00000000
_B4D7                             00000000
_B4D7bits                         00000000
_B4DLC                            00000000
gpasm-1.4.0 #1106 (Oct  6 2014)      main.asm   8-19-2015  19:58:20         PAGE 45


SYMBOL TABLE
  LABEL                             VALUE 

_B4DLCbits                        00000000
_B4EIDH                           00000000
_B4EIDHbits                       00000000
_B4EIDL                           00000000
_B4EIDLbits                       00000000
_B4SIDH                           00000000
_B4SIDHbits                       00000000
_B4SIDL                           00000000
_B4SIDLbits                       00000000
_B5CON                            00000000
_B5CONbits                        00000000
_B5D0                             00000000
_B5D0bits                         00000000
_B5D1                             00000000
_B5D1bits                         00000000
_B5D2                             00000000
_B5D2bits                         00000000
_B5D3                             00000000
_B5D3bits                         00000000
_B5D4                             00000000
_B5D4bits                         00000000
_B5D5                             00000000
_B5D5bits                         00000000
_B5D6                             00000000
_B5D6bits                         00000000
_B5D7                             00000000
_B5D7bits                         00000000
_B5DLC                            00000000
_B5DLCbits                        00000000
_B5EIDH                           00000000
_B5EIDHbits                       00000000
_B5EIDL                           00000000
_B5EIDLbits                       00000000
_B5SIDH                           00000000
_B5SIDHbits                       00000000
_B5SIDL                           00000000
_B5SIDLbits                       00000000
_BAUDCON1                         00000000
_BAUDCON1bits                     00000000
_BAUDCON2                         00000000
_BAUDCON2bits                     00000000
_BIE0                             00000000
_BIE0bits                         00000000
_BRGCON1                          00000000
_BRGCON1bits                      00000000
_BRGCON2                          00000000
_BRGCON2bits                      00000000
_BRGCON3                          00000000
_BRGCON3bits                      00000000
_BSEL0                            00000000
_BSEL0bits                        00000000
_BSR                              00000000
_CANCON                           00000000
gpasm-1.4.0 #1106 (Oct  6 2014)      main.asm   8-19-2015  19:58:20         PAGE 46


SYMBOL TABLE
  LABEL                             VALUE 

_CANCON_RO0                       00000000
_CANCON_RO0bits                   00000000
_CANCON_RO1                       00000000
_CANCON_RO1bits                   00000000
_CANCON_RO2                       00000000
_CANCON_RO2bits                   00000000
_CANCON_RO3                       00000000
_CANCON_RO3bits                   00000000
_CANCON_RO4                       00000000
_CANCON_RO4bits                   00000000
_CANCON_RO5                       00000000
_CANCON_RO5bits                   00000000
_CANCON_RO6                       00000000
_CANCON_RO6bits                   00000000
_CANCON_RO7                       00000000
_CANCON_RO7bits                   00000000
_CANCON_RO8                       00000000
_CANCON_RO8bits                   00000000
_CANCON_RO9                       00000000
_CANCON_RO9bits                   00000000
_CANCONbits                       00000000
_CANSTAT                          00000000
_CANSTAT_RO0                      00000000
_CANSTAT_RO0bits                  00000000
_CANSTAT_RO1                      00000000
_CANSTAT_RO1bits                  00000000
_CANSTAT_RO2                      00000000
_CANSTAT_RO2bits                  00000000
_CANSTAT_RO3                      00000000
_CANSTAT_RO3bits                  00000000
_CANSTAT_RO4                      00000000
_CANSTAT_RO4bits                  00000000
_CANSTAT_RO5                      00000000
_CANSTAT_RO5bits                  00000000
_CANSTAT_RO6                      00000000
_CANSTAT_RO6bits                  00000000
_CANSTAT_RO7                      00000000
_CANSTAT_RO7bits                  00000000
_CANSTAT_RO8                      00000000
_CANSTAT_RO8bits                  00000000
_CANSTAT_RO9                      00000000
_CANSTAT_RO9bits                  00000000
_CANSTATbits                      00000000
_CCP1CON                          00000000
_CCP1CONbits                      00000000
_CCP2CON                          00000000
_CCP2CONbits                      00000000
_CCP3CON                          00000000
_CCP3CONbits                      00000000
_CCP4CON                          00000000
_CCP4CONbits                      00000000
_CCP5CON                          00000000
_CCP5CONbits                      00000000
gpasm-1.4.0 #1106 (Oct  6 2014)      main.asm   8-19-2015  19:58:20         PAGE 47


SYMBOL TABLE
  LABEL                             VALUE 

_CCPR1                            00000000
_CCPR1H                           00000000
_CCPR1L                           00000000
_CCPR2                            00000000
_CCPR2H                           00000000
_CCPR2L                           00000000
_CCPR3                            00000000
_CCPR3H                           00000000
_CCPR3L                           00000000
_CCPR4                            00000000
_CCPR4H                           00000000
_CCPR4L                           00000000
_CCPR5                            00000000
_CCPR5H                           00000000
_CCPR5L                           00000000
_CCPTMRS                          00000000
_CCPTMRSbits                      00000000
_CIOCON                           00000000
_CIOCONbits                       00000000
_CM1CON                           00000000
_CM1CON1                          00000000
_CM1CON1bits                      00000000
_CM1CONbits                       00000000
_CM2CON                           00000000
_CM2CON1                          00000000
_CM2CON1bits                      00000000
_CM2CONbits                       00000000
_CMSTAT                           00000000
_CMSTATUS                         00000000
_CMSTATUSbits                     00000000
_CMSTATbits                       00000000
_COMSTAT                          00000000
_COMSTATbits                      00000000
_CTMUCONH                         00000000
_CTMUCONHbits                     00000000
_CTMUCONL                         00000000
_CTMUCONLbits                     00000000
_CTMUICON                         00000000
_CTMUICONbits                     00000000
_CVRCON                           00000000
_CVRCONbits                       00000000
_ECANCON                          00000000
_ECANCONbits                      00000000
_ECCP1AS                          00000000
_ECCP1ASbits                      00000000
_ECCP1CON                         00000000
_ECCP1CONbits                     00000000
_ECCP1DEL                         00000000
_ECCP1DELbits                     00000000
_ECCP2CON                         00000000
_ECCP2CONbits                     00000000
_EEADR                            00000000
_EEADRH                           00000000
gpasm-1.4.0 #1106 (Oct  6 2014)      main.asm   8-19-2015  19:58:20         PAGE 48


SYMBOL TABLE
  LABEL                             VALUE 

_EECON1                           00000000
_EECON1bits                       00000000
_EECON2                           00000000
_EEDATA                           00000000
_FSR0H                            00000000
_FSR0L                            00000000
_FSR1H                            00000000
_FSR1L                            00000000
_FSR2H                            00000000
_FSR2L                            00000000
_HLVDCON                          00000000
_HLVDCONbits                      00000000
_INDF0                            00000000
_INDF1                            00000000
_INDF2                            00000000
_INTCON                           00000000
_INTCON1                          00000000
_INTCON1bits                      00000000
_INTCON2                          00000000
_INTCON2bits                      00000000
_INTCON3                          00000000
_INTCON3bits                      00000000
_INTCONbits                       00000000
_IOCB                             00000000
_IOCBbits                         00000000
_IPR1                             00000000
_IPR1bits                         00000000
_IPR2                             00000000
_IPR2bits                         00000000
_IPR3                             00000000
_IPR3bits                         00000000
_IPR4                             00000000
_IPR4bits                         00000000
_IPR5                             00000000
_IPR5bits                         00000000
_LATA                             00000000
_LATAbits                         00000000
_LATB                             00000000
_LATBbits                         00000000
_LATC                             00000000
_LATCbits                         00000000
_MSEL0                            00000000
_MSEL0bits                        00000000
_MSEL1                            00000000
_MSEL1bits                        00000000
_MSEL2                            00000000
_MSEL2bits                        00000000
_MSEL3                            00000000
_MSEL3bits                        00000000
_ODCON                            00000000
_ODCONbits                        00000000
_OSCCON                           00000000
_OSCCON2                          00000000
gpasm-1.4.0 #1106 (Oct  6 2014)      main.asm   8-19-2015  19:58:20         PAGE 49


SYMBOL TABLE
  LABEL                             VALUE 

_OSCCON2bits                      00000000
_OSCCONbits                       00000000
_OSCTUNE                          00000000
_OSCTUNEbits                      00000000
_PADCFG1                          00000000
_PADCFG1bits                      00000000
_PC                               00000000
_PCL                              00000000
_PCLATH                           00000000
_PCLATU                           00000000
_PIE1                             00000000
_PIE1bits                         00000000
_PIE2                             00000000
_PIE2bits                         00000000
_PIE3                             00000000
_PIE3bits                         00000000
_PIE4                             00000000
_PIE4bits                         00000000
_PIE5                             00000000
_PIE5bits                         00000000
_PIR1                             00000000
_PIR1bits                         00000000
_PIR2                             00000000
_PIR2bits                         00000000
_PIR3                             00000000
_PIR3bits                         00000000
_PIR4                             00000000
_PIR4bits                         00000000
_PIR5                             00000000
_PIR5bits                         00000000
_PLUSW0                           00000000
_PLUSW1                           00000000
_PLUSW2                           00000000
_PMD0                             00000000
_PMD0bits                         00000000
_PMD1                             00000000
_PMD1bits                         00000000
_PMD2                             00000000
_PMD2bits                         00000000
_PORTA                            00000000
_PORTAbits                        00000000
_PORTB                            00000000
_PORTBbits                        00000000
_PORTC                            00000000
_PORTCbits                        00000000
_PORTE                            00000000
_PORTEbits                        00000000
_POSTDEC0                         00000000
_POSTDEC1                         00000000
_POSTDEC2                         00000000
_POSTINC0                         00000000
_POSTINC1                         00000000
_POSTINC2                         00000000
gpasm-1.4.0 #1106 (Oct  6 2014)      main.asm   8-19-2015  19:58:20         PAGE 50


SYMBOL TABLE
  LABEL                             VALUE 

_PR2                              00000000
_PR4                              00000000
_PREINC0                          00000000
_PREINC1                          00000000
_PREINC2                          00000000
_PROD                             00000000
_PRODH                            00000000
_PRODL                            00000000
_PSTR1CON                         00000000
_PSTR1CONbits                     00000000
_PWM1CON                          00000000
_PWM1CONbits                      00000000
_RCON                             00000000
_RCONbits                         00000000
_RCREG                            00000000
_RCREG1                           00000000
_RCREG2                           00000000
_RCSTA                            00000000
_RCSTA1                           00000000
_RCSTA1bits                       00000000
_RCSTA2                           00000000
_RCSTA2bits                       00000000
_RCSTAbits                        00000000
_REFOCON                          00000000
_REFOCONbits                      00000000
_RXB0CON                          00000000
_RXB0CONbits                      00000000
_RXB0D0                           00000000
_RXB0D0bits                       00000000
_RXB0D1                           00000000
_RXB0D1bits                       00000000
_RXB0D2                           00000000
_RXB0D2bits                       00000000
_RXB0D3                           00000000
_RXB0D3bits                       00000000
_RXB0D4                           00000000
_RXB0D4bits                       00000000
_RXB0D5                           00000000
_RXB0D5bits                       00000000
_RXB0D6                           00000000
_RXB0D6bits                       00000000
_RXB0D7                           00000000
_RXB0D7bits                       00000000
_RXB0DLC                          00000000
_RXB0DLCbits                      00000000
_RXB0EIDH                         00000000
_RXB0EIDHbits                     00000000
_RXB0EIDL                         00000000
_RXB0EIDLbits                     00000000
_RXB0SIDH                         00000000
_RXB0SIDHbits                     00000000
_RXB0SIDL                         00000000
_RXB0SIDLbits                     00000000
gpasm-1.4.0 #1106 (Oct  6 2014)      main.asm   8-19-2015  19:58:20         PAGE 51


SYMBOL TABLE
  LABEL                             VALUE 

_RXB1CON                          00000000
_RXB1CONbits                      00000000
_RXB1D0                           00000000
_RXB1D0bits                       00000000
_RXB1D1                           00000000
_RXB1D1bits                       00000000
_RXB1D2                           00000000
_RXB1D2bits                       00000000
_RXB1D3                           00000000
_RXB1D3bits                       00000000
_RXB1D4                           00000000
_RXB1D4bits                       00000000
_RXB1D5                           00000000
_RXB1D5bits                       00000000
_RXB1D6                           00000000
_RXB1D6bits                       00000000
_RXB1D7                           00000000
_RXB1D7bits                       00000000
_RXB1DLC                          00000000
_RXB1DLCbits                      00000000
_RXB1EIDH                         00000000
_RXB1EIDHbits                     00000000
_RXB1EIDL                         00000000
_RXB1EIDLbits                     00000000
_RXB1SIDH                         00000000
_RXB1SIDHbits                     00000000
_RXB1SIDL                         00000000
_RXB1SIDLbits                     00000000
_RXERRCNT                         00000000
_RXERRCNTbits                     00000000
_RXF0EIDH                         00000000
_RXF0EIDHbits                     00000000
_RXF0EIDL                         00000000
_RXF0EIDLbits                     00000000
_RXF0SIDH                         00000000
_RXF0SIDHbits                     00000000
_RXF0SIDL                         00000000
_RXF0SIDLbits                     00000000
_RXF10EIDH                        00000000
_RXF10EIDHbits                    00000000
_RXF10EIDL                        00000000
_RXF10EIDLbits                    00000000
_RXF10SIDH                        00000000
_RXF10SIDHbits                    00000000
_RXF10SIDL                        00000000
_RXF10SIDLbits                    00000000
_RXF11EIDH                        00000000
_RXF11EIDHbits                    00000000
_RXF11EIDL                        00000000
_RXF11EIDLbits                    00000000
_RXF11SIDH                        00000000
_RXF11SIDHbits                    00000000
_RXF11SIDL                        00000000
gpasm-1.4.0 #1106 (Oct  6 2014)      main.asm   8-19-2015  19:58:20         PAGE 52


SYMBOL TABLE
  LABEL                             VALUE 

_RXF11SIDLbits                    00000000
_RXF12EIDH                        00000000
_RXF12EIDHbits                    00000000
_RXF12EIDL                        00000000
_RXF12EIDLbits                    00000000
_RXF12SIDH                        00000000
_RXF12SIDHbits                    00000000
_RXF12SIDL                        00000000
_RXF12SIDLbits                    00000000
_RXF13EIDH                        00000000
_RXF13EIDHbits                    00000000
_RXF13EIDL                        00000000
_RXF13EIDLbits                    00000000
_RXF13SIDH                        00000000
_RXF13SIDHbits                    00000000
_RXF13SIDL                        00000000
_RXF13SIDLbits                    00000000
_RXF14EIDH                        00000000
_RXF14EIDHbits                    00000000
_RXF14EIDL                        00000000
_RXF14EIDLbits                    00000000
_RXF14SIDH                        00000000
_RXF14SIDHbits                    00000000
_RXF14SIDL                        00000000
_RXF14SIDLbits                    00000000
_RXF15EIDH                        00000000
_RXF15EIDHbits                    00000000
_RXF15EIDL                        00000000
_RXF15EIDLbits                    00000000
_RXF15SIDH                        00000000
_RXF15SIDHbits                    00000000
_RXF15SIDL                        00000000
_RXF15SIDLbits                    00000000
_RXF1EIDH                         00000000
_RXF1EIDHbits                     00000000
_RXF1EIDL                         00000000
_RXF1EIDLbits                     00000000
_RXF1SIDH                         00000000
_RXF1SIDHbits                     00000000
_RXF1SIDL                         00000000
_RXF1SIDLbits                     00000000
_RXF2EIDH                         00000000
_RXF2EIDHbits                     00000000
_RXF2EIDL                         00000000
_RXF2EIDLbits                     00000000
_RXF2SIDH                         00000000
_RXF2SIDHbits                     00000000
_RXF2SIDL                         00000000
_RXF2SIDLbits                     00000000
_RXF3EIDH                         00000000
_RXF3EIDHbits                     00000000
_RXF3EIDL                         00000000
_RXF3EIDLbits                     00000000
gpasm-1.4.0 #1106 (Oct  6 2014)      main.asm   8-19-2015  19:58:20         PAGE 53


SYMBOL TABLE
  LABEL                             VALUE 

_RXF3SIDH                         00000000
_RXF3SIDHbits                     00000000
_RXF3SIDL                         00000000
_RXF3SIDLbits                     00000000
_RXF4EIDH                         00000000
_RXF4EIDHbits                     00000000
_RXF4EIDL                         00000000
_RXF4EIDLbits                     00000000
_RXF4SIDH                         00000000
_RXF4SIDHbits                     00000000
_RXF4SIDL                         00000000
_RXF4SIDLbits                     00000000
_RXF5EIDH                         00000000
_RXF5EIDHbits                     00000000
_RXF5EIDL                         00000000
_RXF5EIDLbits                     00000000
_RXF5SIDH                         00000000
_RXF5SIDHbits                     00000000
_RXF5SIDL                         00000000
_RXF5SIDLbits                     00000000
_RXF6EIDH                         00000000
_RXF6EIDHbits                     00000000
_RXF6EIDL                         00000000
_RXF6EIDLbits                     00000000
_RXF6SIDH                         00000000
_RXF6SIDHbits                     00000000
_RXF6SIDL                         00000000
_RXF6SIDLbits                     00000000
_RXF7EIDH                         00000000
_RXF7EIDHbits                     00000000
_RXF7EIDL                         00000000
_RXF7EIDLbits                     00000000
_RXF7SIDH                         00000000
_RXF7SIDHbits                     00000000
_RXF7SIDL                         00000000
_RXF7SIDLbits                     00000000
_RXF8EIDH                         00000000
_RXF8EIDHbits                     00000000
_RXF8EIDL                         00000000
_RXF8EIDLbits                     00000000
_RXF8SIDH                         00000000
_RXF8SIDHbits                     00000000
_RXF8SIDL                         00000000
_RXF8SIDLbits                     00000000
_RXF9EIDH                         00000000
_RXF9EIDHbits                     00000000
_RXF9EIDL                         00000000
_RXF9EIDLbits                     00000000
_RXF9SIDH                         00000000
_RXF9SIDHbits                     00000000
_RXF9SIDL                         00000000
_RXF9SIDLbits                     00000000
_RXFBCON0                         00000000
gpasm-1.4.0 #1106 (Oct  6 2014)      main.asm   8-19-2015  19:58:20         PAGE 54


SYMBOL TABLE
  LABEL                             VALUE 

_RXFBCON0bits                     00000000
_RXFBCON1                         00000000
_RXFBCON1bits                     00000000
_RXFBCON2                         00000000
_RXFBCON2bits                     00000000
_RXFBCON3                         00000000
_RXFBCON3bits                     00000000
_RXFBCON4                         00000000
_RXFBCON4bits                     00000000
_RXFBCON5                         00000000
_RXFBCON5bits                     00000000
_RXFBCON6                         00000000
_RXFBCON6bits                     00000000
_RXFBCON7                         00000000
_RXFBCON7bits                     00000000
_RXFCON0                          00000000
_RXFCON0bits                      00000000
_RXFCON1                          00000000
_RXFCON1bits                      00000000
_RXM0EIDH                         00000000
_RXM0EIDHbits                     00000000
_RXM0EIDL                         00000000
_RXM0EIDLbits                     00000000
_RXM0SIDH                         00000000
_RXM0SIDHbits                     00000000
_RXM0SIDL                         00000000
_RXM0SIDLbits                     00000000
_RXM1EIDH                         00000000
_RXM1EIDHbits                     00000000
_RXM1EIDL                         00000000
_RXM1EIDLbits                     00000000
_RXM1SIDH                         00000000
_RXM1SIDHbits                     00000000
_RXM1SIDL                         00000000
_RXM1SIDLbits                     00000000
_SDFLC                            00000000
_SDFLCbits                        00000000
_SLRCON                           00000000
_SLRCONbits                       00000000
_SPBRG                            00000000
_SPBRG1                           00000000
_SPBRG2                           00000000
_SPBRGH1                          00000000
_SPBRGH2                          00000000
_SSPADD                           00000000
_SSPADDbits                       00000000
_SSPBUF                           00000000
_SSPCON1                          00000000
_SSPCON1bits                      00000000
_SSPCON2                          00000000
_SSPCON2bits                      00000000
_SSPSTAT                          00000000
_SSPSTATbits                      00000000
gpasm-1.4.0 #1106 (Oct  6 2014)      main.asm   8-19-2015  19:58:20         PAGE 55


SYMBOL TABLE
  LABEL                             VALUE 

_STATUS                           00000000
_STATUSbits                       00000000
_STKPTR                           00000000
_STKPTRbits                       00000000
_T0CON                            00000000
_T0CONbits                        00000000
_T1CON                            00000000
_T1CONbits                        00000000
_T1GCON                           00000000
_T1GCONbits                       00000000
_T2CON                            00000000
_T2CONbits                        00000000
_T3CON                            00000000
_T3CONbits                        00000000
_T3GCON                           00000000
_T3GCONbits                       00000000
_T4CON                            00000000
_T4CONbits                        00000000
_TABLAT                           00000000
_TBLPTR                           00000000
_TBLPTRH                          00000000
_TBLPTRL                          00000000
_TBLPTRU                          00000000
_TMR0                             00000000
_TMR0H                            00000000
_TMR0L                            00000000
_TMR1                             00000000
_TMR1H                            00000000
_TMR1L                            00000000
_TMR2                             00000000
_TMR3                             00000000
_TMR3H                            00000000
_TMR3L                            00000000
_TMR4                             00000000
_TOS                              00000000
_TOSH                             00000000
_TOSL                             00000000
_TOSU                             00000000
_TRISA                            00000000
_TRISAbits                        00000000
_TRISB                            00000000
_TRISBbits                        00000000
_TRISC                            00000000
_TRISCbits                        00000000
_TXB0CON                          00000000
_TXB0CONbits                      00000000
_TXB0D0                           00000000
_TXB0D0bits                       00000000
_TXB0D1                           00000000
_TXB0D1bits                       00000000
_TXB0D2                           00000000
_TXB0D2bits                       00000000
_TXB0D3                           00000000
gpasm-1.4.0 #1106 (Oct  6 2014)      main.asm   8-19-2015  19:58:20         PAGE 56


SYMBOL TABLE
  LABEL                             VALUE 

_TXB0D3bits                       00000000
_TXB0D4                           00000000
_TXB0D4bits                       00000000
_TXB0D5                           00000000
_TXB0D5bits                       00000000
_TXB0D6                           00000000
_TXB0D6bits                       00000000
_TXB0D7                           00000000
_TXB0D7bits                       00000000
_TXB0DLC                          00000000
_TXB0DLCbits                      00000000
_TXB0EIDH                         00000000
_TXB0EIDHbits                     00000000
_TXB0EIDL                         00000000
_TXB0EIDLbits                     00000000
_TXB0SIDH                         00000000
_TXB0SIDHbits                     00000000
_TXB0SIDL                         00000000
_TXB0SIDLbits                     00000000
_TXB1CON                          00000000
_TXB1CONbits                      00000000
_TXB1D0                           00000000
_TXB1D0bits                       00000000
_TXB1D1                           00000000
_TXB1D1bits                       00000000
_TXB1D2                           00000000
_TXB1D2bits                       00000000
_TXB1D3                           00000000
_TXB1D3bits                       00000000
_TXB1D4                           00000000
_TXB1D4bits                       00000000
_TXB1D5                           00000000
_TXB1D5bits                       00000000
_TXB1D6                           00000000
_TXB1D6bits                       00000000
_TXB1D7                           00000000
_TXB1D7bits                       00000000
_TXB1DLC                          00000000
_TXB1DLCbits                      00000000
_TXB1EIDH                         00000000
_TXB1EIDHbits                     00000000
_TXB1EIDL                         00000000
_TXB1EIDLbits                     00000000
_TXB1SIDH                         00000000
_TXB1SIDHbits                     00000000
_TXB1SIDL                         00000000
_TXB1SIDLbits                     00000000
_TXB2CON                          00000000
_TXB2CONbits                      00000000
_TXB2D0                           00000000
_TXB2D0bits                       00000000
_TXB2D1                           00000000
_TXB2D1bits                       00000000
gpasm-1.4.0 #1106 (Oct  6 2014)      main.asm   8-19-2015  19:58:20         PAGE 57


SYMBOL TABLE
  LABEL                             VALUE 

_TXB2D2                           00000000
_TXB2D2bits                       00000000
_TXB2D3                           00000000
_TXB2D3bits                       00000000
_TXB2D4                           00000000
_TXB2D4bits                       00000000
_TXB2D5                           00000000
_TXB2D5bits                       00000000
_TXB2D6                           00000000
_TXB2D6bits                       00000000
_TXB2D7                           00000000
_TXB2D7bits                       00000000
_TXB2DLC                          00000000
_TXB2DLCbits                      00000000
_TXB2EIDH                         00000000
_TXB2EIDHbits                     00000000
_TXB2EIDL                         00000000
_TXB2EIDLbits                     00000000
_TXB2SIDH                         00000000
_TXB2SIDHbits                     00000000
_TXB2SIDL                         00000000
_TXB2SIDLbits                     00000000
_TXBIE                            00000000
_TXBIEbits                        00000000
_TXERRCNT                         00000000
_TXERRCNTbits                     00000000
_TXREG                            00000000
_TXREG1                           00000000
_TXREG2                           00000000
_TXSTA                            00000000
_TXSTA1                           00000000
_TXSTA1bits                       00000000
_TXSTA2                           00000000
_TXSTA2bits                       00000000
_TXSTAbits                        00000000
_UART_getchar                     00000000
_UART_init                        00000000
_UART_putchar                     00000000
_WDTCON                           00000000
_WDTCONbits                       00000000
_WPUB                             00000000
_WPUBbits                         00000000
_WREG                             00000000
__18F26K80                        00000001
__ACC_RAM_LOW_END                 0000005F
__CODE_END                        0000FFFF
__CODE_START                      00000000
__EEPROM_END                      00F003FF
__EEPROM_START                    00F00000
__VECTOR_INT_HIGH                 00000008
__VECTOR_INT_LOW                  00000018
__VECTOR_RESET                    00000000
___str_0                          00000016
gpasm-1.4.0 #1106 (Oct  6 2014)      main.asm   8-19-2015  19:58:20         PAGE 58


SYMBOL TABLE
  LABEL                             VALUE 

__gptrget1                        00000000
_bootloader_state_machine         00000000
_erase_flash                      00000000
_gbuffer                          00000000
_interrupt_at_high_vector         00000008
_interrupt_at_low_vector          00000018
_jump_to_app                      00000000
_main                             00000000
_send_string_uart                 00000000
_stack                            00000200
_stack_end                        000002FE
_stdin                            00000000
_stdout                           00000000
_timeout                          00000000
_write_flash                      00000000
r0x00                             00000000
r0x01                             00000001
r0x02                             00000002
r0x03                             00000003
r0x04                             00000004
r0x05                             00000005
r0x06                             00000006
r0x07                             00000007
r0x08                             00000008
r0x09                             00000009
r0x0a                             0000000A
r0x0b                             0000000B

Errors   :     0
Warnings :     0 reported,     0 suppressed
Messages :   137 reported,     0 suppressed

